L251 LINKER/LOCATER V4.66.93.0                                                          11/26/2024  21:46:51  PAGE 1


L251 LINKER/LOCATER V4.66.93.0, INVOKED BY:
C:\KEIL_V5\C251\BIN\L251.EXE .\list\main.obj, .\list\system_init.obj, .\list\Task.obj, .\list\APP.obj, .\list\APP_AD_UAR
>> T.obj, .\list\APP_Lamp.obj, .\list\APP_INT_UART.obj, .\list\APP_RTC.obj, .\list\APP_I2C_PS.obj, .\list\APP_SPI_PS.obj
>> , .\list\APP_WDT.obj, .\list\APP_EEPROM.obj, .\list\APP_DMA_AD.obj, .\list\APP_DMA_LCM.obj, .\list\APP_DMA_M2M.obj, .
>> \list\APP_DMA_SPI_PS.obj, .\list\APP_DMA_UART.obj, .\list\APP_PWMA_Output.obj, .\list\APP_PWMB_Output.obj, .\list\APP
>> _DMA_I2C.obj, .\list\APP_CAN.obj, .\list\APP_LIN.obj, .\list\APP_USART_LIN.obj, .\list\APP_USART2_LIN.obj, .\list\APP
>> _HSSPI.obj, .\list\APP_HSPWM.obj, .\list\STC32G_ADC.obj, .\list\STC32G_Compare.obj, .\list\STC32G_Delay.obj, .\list\S
>> TC32G_EEPROM.obj, .\list\STC32G_Exti.obj, .\list\STC32G_GPIO.obj, .\list\STC32G_I2C.obj, .\list\STC32G_LCM.obj, .\lis
>> t\STC32G_NVIC.obj, .\list\STC32G_Soft_I2C.obj, .\list\STC32G_Soft_UART.obj, .\list\STC32G_SPI.obj, .\list\STC32G_Time
>> r.obj, .\list\STC32G_UART.obj, .\list\STC32G_WDT.obj, .\list\STC32G_DMA.obj, .\list\STC32G_PWM.obj, .\list\STC32G_RTC
>> .obj, .\list\STC32G_CAN.obj, .\list\STC32G_LIN.obj, .\list\STC32G_Clock.obj, .\list\STC32G_USART_LIN.obj, .\list\STC3
>> 2G_ADC_Isr.obj, .\list\STC32G_Compare_Isr.obj, .\list\STC32G_Exti_Isr.obj, .\list\STC32G_GPIO_Isr.obj, .\list\STC32G_
>> I2C_Isr.obj, .\list\STC32G_SPI_Isr.obj, .\list\STC32G_Timer_Isr.obj, .\list\STC32G_UART_Isr.obj, .\list\STC32G_DMA_Is
>> r.obj, .\list\STC32G_PWM_Isr.obj, .\list\STC32G_RTC_Isr.obj, .\list\STC32G_LCM_Isr.obj, .\list\STC32G_CAN_Isr.obj, .\
>> list\STC32G_LIN_Isr.obj, ..\Driver\lib\STC32_MDU32_V1.1.LIB TO .\list\STC32G-LIB PRINT (.\list\STC32G-LIB.map) CASE D
>> ISABLEWARNING (16, 57) REMOVEUNUSED CLASSES (EDATA (0X0-0XFFF), HDATA (0X0-0XFFF))


CPU MODE:     251 SOURCE MODE
INTR FRAME:   2 BYTES SAVED ON INTERRUPT
MEMORY MODEL: XSMALL


INPUT MODULES INCLUDED:
  .\list\main.obj (main)
         COMMENT TYPE 0: C251 V5.60.0
  .\list\system_init.obj (system_init)
         COMMENT TYPE 0: C251 V5.60.0
  .\list\Task.obj (Task)
         COMMENT TYPE 0: C251 V5.60.0
  .\list\APP.obj (APP)
         COMMENT TYPE 0: C251 V5.60.0
  .\list\APP_AD_UART.obj (APP_AD_UART)
         COMMENT TYPE 0: C251 V5.60.0
  .\list\APP_Lamp.obj (APP_Lamp)
         COMMENT TYPE 0: C251 V5.60.0
  .\list\APP_INT_UART.obj (APP_INT_UART)
         COMMENT TYPE 0: C251 V5.60.0
  .\list\APP_RTC.obj (APP_RTC)
         COMMENT TYPE 0: C251 V5.60.0
  .\list\APP_I2C_PS.obj (APP_I2C_PS)
         COMMENT TYPE 0: C251 V5.60.0
  .\list\APP_SPI_PS.obj (APP_SPI_PS)
         COMMENT TYPE 0: C251 V5.60.0
  .\list\APP_WDT.obj (APP_WDT)
         COMMENT TYPE 0: C251 V5.60.0
  .\list\APP_EEPROM.obj (APP_EEPROM)
         COMMENT TYPE 0: C251 V5.60.0
  .\list\APP_DMA_AD.obj (APP_DMA_AD)
         COMMENT TYPE 0: C251 V5.60.0
  .\list\APP_DMA_LCM.obj (APP_DMA_LCM)
         COMMENT TYPE 0: C251 V5.60.0
  .\list\APP_DMA_M2M.obj (APP_DMA_M2M)
         COMMENT TYPE 0: C251 V5.60.0
  .\list\APP_DMA_SPI_PS.obj (APP_DMA_SPI_PS)
         COMMENT TYPE 0: C251 V5.60.0
  .\list\APP_DMA_UART.obj (APP_DMA_UART)
         COMMENT TYPE 0: C251 V5.60.0
  .\list\APP_PWMA_Output.obj (APP_PWMA_Output)
         COMMENT TYPE 0: C251 V5.60.0
  .\list\APP_PWMB_Output.obj (APP_PWMB_Output)
         COMMENT TYPE 0: C251 V5.60.0
  .\list\APP_DMA_I2C.obj (APP_DMA_I2C)
         COMMENT TYPE 0: C251 V5.60.0
  .\list\APP_CAN.obj (APP_CAN)
         COMMENT TYPE 0: C251 V5.60.0
L251 LINKER/LOCATER V4.66.93.0                                                        11/26/2024  21:46:51  PAGE 2


  .\list\APP_LIN.obj (APP_LIN)
         COMMENT TYPE 0: C251 V5.60.0
  .\list\APP_USART_LIN.obj (APP_USART_LIN)
         COMMENT TYPE 0: C251 V5.60.0
  .\list\APP_USART2_LIN.obj (APP_USART2_LIN)
         COMMENT TYPE 0: C251 V5.60.0
  .\list\APP_HSSPI.obj (APP_HSSPI)
         COMMENT TYPE 0: C251 V5.60.0
  .\list\APP_HSPWM.obj (APP_HSPWM)
         COMMENT TYPE 0: C251 V5.60.0
  .\list\STC32G_ADC.obj (STC32G_ADC)
         COMMENT TYPE 0: C251 V5.60.0
  .\list\STC32G_Compare.obj (STC32G_Compare)
         COMMENT TYPE 0: C251 V5.60.0
  .\list\STC32G_Delay.obj (STC32G_Delay)
         COMMENT TYPE 0: C251 V5.60.0
  .\list\STC32G_EEPROM.obj (STC32G_EEPROM)
         COMMENT TYPE 0: C251 V5.60.0
  .\list\STC32G_Exti.obj (STC32G_Exti)
         COMMENT TYPE 0: C251 V5.60.0
  .\list\STC32G_GPIO.obj (STC32G_GPIO)
         COMMENT TYPE 0: C251 V5.60.0
  .\list\STC32G_I2C.obj (STC32G_I2C)
         COMMENT TYPE 0: C251 V5.60.0
  .\list\STC32G_LCM.obj (STC32G_LCM)
         COMMENT TYPE 0: C251 V5.60.0
  .\list\STC32G_NVIC.obj (STC32G_NVIC)
         COMMENT TYPE 0: C251 V5.60.0
  .\list\STC32G_Soft_I2C.obj (STC32G_Soft_I2C)
         COMMENT TYPE 0: C251 V5.60.0
  .\list\STC32G_Soft_UART.obj (STC32G_Soft_UART)
         COMMENT TYPE 0: C251 V5.60.0
  .\list\STC32G_SPI.obj (STC32G_SPI)
         COMMENT TYPE 0: C251 V5.60.0
  .\list\STC32G_Timer.obj (STC32G_Timer)
         COMMENT TYPE 0: C251 V5.60.0
  .\list\STC32G_UART.obj (STC32G_UART)
         COMMENT TYPE 0: C251 V5.60.0
  .\list\STC32G_WDT.obj (STC32G_WDT)
         COMMENT TYPE 0: C251 V5.60.0
  .\list\STC32G_DMA.obj (STC32G_DMA)
         COMMENT TYPE 0: C251 V5.60.0
  .\list\STC32G_PWM.obj (STC32G_PWM)
         COMMENT TYPE 0: C251 V5.60.0
  .\list\STC32G_RTC.obj (STC32G_RTC)
         COMMENT TYPE 0: C251 V5.60.0
  .\list\STC32G_CAN.obj (STC32G_CAN)
         COMMENT TYPE 0: C251 V5.60.0
  .\list\STC32G_LIN.obj (STC32G_LIN)
         COMMENT TYPE 0: C251 V5.60.0
  .\list\STC32G_Clock.obj (STC32G_Clock)
         COMMENT TYPE 0: C251 V5.60.0
  .\list\STC32G_USART_LIN.obj (STC32G_USART_LIN)
         COMMENT TYPE 0: C251 V5.60.0
  .\list\STC32G_ADC_Isr.obj (STC32G_ADC_Isr)
         COMMENT TYPE 0: C251 V5.60.0
  .\list\STC32G_Compare_Isr.obj (STC32G_Compare_Isr)
         COMMENT TYPE 0: C251 V5.60.0
  .\list\STC32G_Exti_Isr.obj (STC32G_Exti_Isr)
         COMMENT TYPE 0: C251 V5.60.0
  .\list\STC32G_GPIO_Isr.obj (STC32G_GPIO_Isr)
         COMMENT TYPE 0: C251 V5.60.0
  .\list\STC32G_I2C_Isr.obj (STC32G_I2C_Isr)
         COMMENT TYPE 0: C251 V5.60.0
  .\list\STC32G_SPI_Isr.obj (STC32G_SPI_Isr)
L251 LINKER/LOCATER V4.66.93.0                                                        11/26/2024  21:46:51  PAGE 3


         COMMENT TYPE 0: C251 V5.60.0
  .\list\STC32G_Timer_Isr.obj (STC32G_Timer_Isr)
         COMMENT TYPE 0: C251 V5.60.0
  .\list\STC32G_UART_Isr.obj (STC32G_UART_Isr)
         COMMENT TYPE 0: C251 V5.60.0
  .\list\STC32G_DMA_Isr.obj (STC32G_DMA_Isr)
         COMMENT TYPE 0: C251 V5.60.0
  .\list\STC32G_PWM_Isr.obj (STC32G_PWM_Isr)
         COMMENT TYPE 0: C251 V5.60.0
  .\list\STC32G_RTC_Isr.obj (STC32G_RTC_Isr)
         COMMENT TYPE 0: C251 V5.60.0
  .\list\STC32G_LCM_Isr.obj (STC32G_LCM_Isr)
         COMMENT TYPE 0: C251 V5.60.0
  .\list\STC32G_CAN_Isr.obj (STC32G_CAN_Isr)
         COMMENT TYPE 0: C251 V5.60.0
  .\list\STC32G_LIN_Isr.obj (STC32G_LIN_Isr)
         COMMENT TYPE 0: C251 V5.60.0
  ..\Driver\lib\STC32_MDU32_V1.1.LIB (STC_MDU32)
         COMMENT TYPE 0: A251 V4.69.13.0
  C:\KEIL_V5\C251\LIB\C2SXS.LIB (?C_START)
         COMMENT TYPE 0: A251 V4.69.6.0
  C:\KEIL_V5\C251\LIB\C2SXS.LIB (?C?INITEDATA)
         COMMENT TYPE 0: A251 V4.69.6.0
  C:\KEIL_V5\C251\LIB\C2SXS.LIB (?C?INITHDATA)
         COMMENT TYPE 0: A251 V4.69.6.0
  C:\KEIL_V5\C251\LIB\C2SXS.LIB (?C?SIDIV)
         COMMENT TYPE 0: A251 V4.69.6.0
  C:\KEIL_V5\C251\LIB\C2SXS.LIB (PRINTF)
         COMMENT TYPE 0: A251 V4.69.6.0
  C:\KEIL_V5\C251\LIB\C2SXS.LIB (?C?INITEDATA_END)
         COMMENT TYPE 0: A251 V4.69.6.0
  C:\KEIL_V5\C251\LIB\C2SXS.LIB (?C?INITHDATA_END)
         COMMENT TYPE 0: A251 V4.69.6.0
  C:\KEIL_V5\C251\LIB\C2SXS.LIB (?C?PRNFMT)
         COMMENT TYPE 0: A251 V4.69.6.0


ACTIVE MEMORY CLASSES OF MODULE:  .\list\STC32G-LIB (main)

BASE        START       END         USED      MEMORY CLASS
==========================================================
000000H     000000H     000FFFH     0006A7H   EDATA
000000H     000000H     000FFFH               HDATA
FF0000H     FF0000H     FFFFFFH     002593H   CODE
000000H     FF0000H     FFFFFFH     0006D3H   HCONST
000020H.0   000020H.0   00002FH.7   000005H.2 BIT
010000H     010000H     01FFFFH     0019D0H   XDATA
FF0000H     FF0000H     FFFFFFH     000004H   CONST
000000H     000000H     00007FH     000008H   DATA


MEMORY MAP OF MODULE:  .\list\STC32G-LIB (main)


START     STOP      LENGTH    ALIGN  RELOC    MEMORY CLASS   SEGMENT NAME
=========================================================================
000000H   000007H   000008H   ---    AT..     DATA           "REG BANK 0"
000008H   00001DH   000016H   BYTE   UNIT     EDATA          ?ED?APP
00001EH   00001FH   000002H   BYTE   UNIT     EDATA          ?ED?STC32G_DMA_ISR
000020H.0 000022H.2 000002H.3 BIT    UNIT     BIT            ?BI?STC32G_DMA_ISR
000022H.3 000022H.6 000000H.4 BIT    UNIT     BIT            ?BI?APP_PWMA_OUTPUT
000022H.7 000023H.2 000000H.4 BIT    UNIT     BIT            ?BI?APP_PWMB_OUTPUT
000023H.3 000023H.6 000000H.4 BIT    UNIT     BIT            ?BI?STC32G_CAN_ISR
000023H.7 000024H.0 000000H.2 BIT    UNIT     BIT            ?BI?APP
000024H.1 000024H.2 000000H.2 BIT    UNIT     BIT            ?BI?STC32G_UART_ISR
L251 LINKER/LOCATER V4.66.93.0                                                        11/26/2024  21:46:51  PAGE 4


000024H.3 000024H.4 000000H.2 BIT    UNIT     BIT            ?BI?STC32G_RTC_ISR
000024H.5 000024H.5 000000H.1 BIT    UNIT     BIT            ?BI?APP_SPI_PS
000024H.6 000024H.6 000000H.1 BIT    UNIT     BIT            ?BI?STC32G_SPI
000024H.7 000024H.7 000000H.1 BIT    UNIT     BIT            ?BI?STC32G_I2C_ISR
000025H.0 000025H.0 000000H.1 BIT    UNIT     BIT            ?BI?STC32G_LCM_ISR
000025H.1 000025H.1 000000H.1 BIT    UNIT     BIT            ?BI?STC32G_LIN_ISR
000025H.2 000025H   000000H.6 ---    ---      **GAP**
000026H   000339H   000314H   BYTE   UNIT     EDATA          ?ED?STC32G_UART
00033AH   000423H   0000EAH   BYTE   UNIT     EDATA          ?ED?STC32G_CAN
000424H   0004A4H   000081H   BYTE   UNIT     EDATA          ?ED?STC32G_SPI
0004A5H   000508H   000064H   BYTE   UNIT     EDATA          ?ED?APP_EEPROM
000509H   000530H   000028H   BYTE   UNIT     EDATA          ?ED?PRINTF
000531H   000540H   000010H   BYTE   UNIT     EDATA          ?ED?APP_PWMA_OUTPUT
000541H   000550H   000010H   BYTE   UNIT     EDATA          ?ED?APP_PWMB_OUTPUT
000551H   00055FH   00000FH   BYTE   UNIT     EDATA          ?ED?TASK
000560H   00056DH   00000EH   BYTE   UNIT     EDATA          _EDATA_GROUP_
00056EH   00057AH   00000DH   BYTE   UNIT     EDATA          ?ED?APP_DMA_LCM
00057BH   000583H   000009H   BYTE   UNIT     EDATA          ?ED?APP_LIN
000584H   00058CH   000009H   BYTE   UNIT     EDATA          ?ED?APP_USART_LIN
00058DH   000595H   000009H   BYTE   UNIT     EDATA          ?ED?APP_USART2_LIN
000596H   00059EH   000009H   BYTE   UNIT     EDATA          ?ED?APP_HSSPI
00059FH   0005A6H   000008H   BYTE   UNIT     EDATA          ?ED?STC32G_I2C
0005A7H   0005AAH   000004H   BYTE   UNIT     EDATA          ?ED?APP_I2C_PS
0005ABH   0005ADH   000003H   BYTE   UNIT     EDATA          ?ED?STC32G_I2C_ISR
0005AEH   0005AEH   000001H   BYTE   UNIT     EDATA          ?ED?APP_AD_UART
0005AFH   0005AFH   000001H   BYTE   UNIT     EDATA          ?ED?APP_LAMP
0005B0H   0005B0H   000001H   BYTE   UNIT     EDATA          ?ED?APP_INT_UART
0005B1H   0005B1H   000001H   BYTE   UNIT     EDATA          ?ED?APP_DMA_AD
0005B2H   0005B2H   000001H   BYTE   UNIT     EDATA          ?ED?APP_DMA_I2C
0005B3H   0005B3H   000001H   BYTE   UNIT     EDATA          ?ED?STC32G_EXTI_ISR
0005B4H   0005B4H   000001H   BYTE   UNIT     EDATA          ?ED?STC32G_SPI_ISR
0005B5H   0006B4H   000100H   BYTE   UNIT     EDATA          ?STACK
0006B5H   00FFFFH   00F94BH   ---    ---      **GAP**
010000H   01100FH   001010H   BYTE   INSEG    XDATA          ?XD?APP_DMA_LCM
011010H   01140FH   000400H   BYTE   INSEG    XDATA          ?XD?APP_DMA_SPI_PS
011410H   01160FH   000200H   BYTE   INSEG    XDATA          ?XD?APP_DMA_M2M
011610H   01180FH   000200H   BYTE   INSEG    XDATA          ?XD?APP_DMA_I2C
011810H   01190FH   000100H   BYTE   INSEG    XDATA          ?XD?APP_DMA_UART
011910H   0119CFH   0000C0H   BYTE   INSEG    XDATA          ?XD?APP_DMA_AD
0119D0H   FEFFFFH   FDE630H   ---    ---      **GAP**
FF0000H   FF0002H   000003H   ---    OFFS..   CODE           ?CO?start251?4
FF0003H   FF0005H   000003H   ---    OFFS..   CODE           ?PR?IV?0
FF0006H   FF0009H   000004H   BYTE   UNIT     CODE           ?PR?ULDIV?STC_MDU32
FF000AH   FF000AH   000001H   ---    ---      **GAP**
FF000BH   FF000DH   000003H   ---    OFFS..   CODE           ?PR?IV?1
FF000EH   FF0011H   000004H   BYTE   UNIT     CONST          ?CO?PRINTF
FF0012H   FF0012H   000001H   ---    ---      **GAP**
FF0013H   FF0015H   000003H   ---    OFFS..   CODE           ?PR?IV?2
FF0016H   FF001AH   000005H   ---    ---      **GAP**
FF001BH   FF001DH   000003H   ---    OFFS..   CODE           ?PR?IV?3
FF001EH   FF0022H   000005H   ---    ---      **GAP**
FF0023H   FF0025H   000003H   ---    OFFS..   CODE           ?PR?IV?4
FF0026H   FF002AH   000005H   ---    ---      **GAP**
FF002BH   FF002DH   000003H   ---    OFFS..   CODE           ?PR?IV?5
FF002EH   FF0040H   000013H   BYTE   INSEG    CODE           ?PR?CANREADREG?STC32G_CAN
FF0041H   FF0042H   000002H   ---    ---      **GAP**
FF0043H   FF0045H   000003H   ---    OFFS..   CODE           ?PR?IV?8
FF0046H   FF004AH   000005H   ---    ---      **GAP**
FF004BH   FF004DH   000003H   ---    OFFS..   CODE           ?PR?IV?9
FF004EH   FF0052H   000005H   ---    ---      **GAP**
FF0053H   FF0055H   000003H   ---    OFFS..   CODE           ?PR?IV?10
FF0056H   FF005AH   000005H   ---    ---      **GAP**
FF005BH   FF005DH   000003H   ---    OFFS..   CODE           ?PR?IV?11
FF005EH   FF0062H   000005H   ---    ---      **GAP**
FF0063H   FF0065H   000003H   ---    OFFS..   CODE           ?PR?IV?12
L251 LINKER/LOCATER V4.66.93.0                                                        11/26/2024  21:46:51  PAGE 5


FF0066H   FF006AH   000005H   ---    ---      **GAP**
FF006BH   FF006DH   000003H   ---    OFFS..   CODE           ?PR?IV?13
FF006EH   FF007FH   000012H   BYTE   INSEG    CODE           ?PR?MAIN?MAIN
FF0080H   FF0082H   000003H   ---    ---      **GAP**
FF0083H   FF0085H   000003H   ---    OFFS..   CODE           ?PR?IV?16
FF0086H   FF008AH   000005H   ---    ---      **GAP**
FF008BH   FF008DH   000003H   ---    OFFS..   CODE           ?PR?IV?17
FF008EH   FF0092H   000005H   ---    ---      **GAP**
FF0093H   FF0095H   000003H   ---    OFFS..   CODE           ?PR?IV?18
FF0096H   FF009AH   000005H   ---    ---      **GAP**
FF009BH   FF009DH   000003H   ---    OFFS..   CODE           ?PR?IV?19
FF009EH   FF00A2H   000005H   ---    ---      **GAP**
FF00A3H   FF00A5H   000003H   ---    OFFS..   CODE           ?PR?IV?20
FF00A6H   FF00AAH   000005H   ---    ---      **GAP**
FF00ABH   FF00ADH   000003H   ---    OFFS..   CODE           ?PR?IV?21
FF00AEH   FF00BDH   000010H   BYTE   INSEG    CODE           ?PR?TX1_WRITE2BUFF?STC32G_UART
FF00BEH   FF00C2H   000005H   ---    ---      **GAP**
FF00C3H   FF00C5H   000003H   ---    OFFS..   CODE           ?PR?IV?24
FF00C6H   FF00D2H   00000DH   BYTE   INSEG    CODE           ?PR?LAMP_INIT?APP_LAMP
FF00D3H   FF00D5H   000003H   ---    OFFS..   CODE           ?PR?IV?26
FF00D6H   FF00DAH   000005H   ---    ---      **GAP**
FF00DBH   FF00DDH   000003H   ---    OFFS..   CODE           ?PR?IV?27
FF00DEH   FF00E2H   000005H   ---    ---      **GAP**
FF00E3H   FF00E5H   000003H   ---    OFFS..   CODE           ?PR?IV?28
FF00E6H   FF00EAH   000005H   ---    ---      **GAP**
FF00EBH   FF00EDH   000003H   ---    OFFS..   CODE           ?PR?IV?29
FF00EEH   FF00F2H   000005H   ---    ---      **GAP**
FF00F3H   FF00F5H   000003H   ---    OFFS..   CODE           ?PR?IV?30
FF00F6H   FF011AH   000025H   BYTE   INSEG    CODE           ?PR?DMA_ADC_ISR_HANDLER?STC32G_DMA_ISR
FF011BH   FF0122H   000008H   BYTE   UNIT     CODE           ?CO?APP_LAMP
FF0123H   FF0125H   000003H   ---    OFFS..   CODE           ?PR?IV?36
FF0126H   FF017AH   000055H   BYTE   INSEG    CODE           ?PR?LIN_ISR_HANDLER?STC32G_LIN_ISR
FF017BH   FF017DH   000003H   ---    OFFS..   CODE           ?PR?IV?47
FF017EH   FF0182H   000005H   ---    ---      **GAP**
FF0183H   FF0185H   000003H   ---    OFFS..   CODE           ?PR?IV?48
FF0186H   FF018AH   000005H   ---    ---      **GAP**
FF018BH   FF018DH   000003H   ---    OFFS..   CODE           ?PR?IV?49
FF018EH   FF0192H   000005H   ---    ---      **GAP**
FF0193H   FF0195H   000003H   ---    OFFS..   CODE           ?PR?IV?50
FF0196H   FF019AH   000005H   ---    ---      **GAP**
FF019BH   FF019DH   000003H   ---    OFFS..   CODE           ?PR?IV?51
FF019EH   FF01A2H   000005H   ---    ---      **GAP**
FF01A3H   FF01A5H   000003H   ---    OFFS..   CODE           ?PR?IV?52
FF01A6H   FF01AAH   000005H   ---    ---      **GAP**
FF01ABH   FF01ADH   000003H   ---    OFFS..   CODE           ?PR?IV?53
FF01AEH   FF01B2H   000005H   ---    ---      **GAP**
FF01B3H   FF01B5H   000003H   ---    OFFS..   CODE           ?PR?IV?54
FF01B6H   FF01BAH   000005H   ---    ---      **GAP**
FF01BBH   FF01BDH   000003H   ---    OFFS..   CODE           ?PR?IV?55
FF01BEH   FF01C2H   000005H   ---    ---      **GAP**
FF01C3H   FF01C5H   000003H   ---    OFFS..   CODE           ?PR?IV?56
FF01C6H   FF01CAH   000005H   ---    ---      **GAP**
FF01CBH   FF01CDH   000003H   ---    OFFS..   CODE           ?PR?IV?57
FF01CEH   FF01D2H   000005H   ---    ---      **GAP**
FF01D3H   FF01D5H   000003H   ---    OFFS..   CODE           ?PR?IV?58
FF01D6H   FF01DAH   000005H   ---    ---      **GAP**
FF01DBH   FF01DDH   000003H   ---    OFFS..   CODE           ?PR?IV?59
FF01DEH   FF01E2H   000005H   ---    ---      **GAP**
FF01E3H   FF01E5H   000003H   ---    OFFS..   CODE           ?PR?IV?60
FF01E6H   FF01EAH   000005H   ---    ---      **GAP**
FF01EBH   FF01EDH   000003H   ---    OFFS..   CODE           ?PR?IV?61
FF01EEH   FF0C51H   000A64H   BYTE   UNIT     CODE           ?CO?APP_DMA_LCM
FF0C52H   FF0F91H   000340H   BYTE   INSEG    CODE           ?PR?UART_CONFIGURATION?STC32G_UART
FF0F92H   FF12C3H   000332H   BYTE   UNIT     CODE           ?C?LIB_CODE
FF12C4H   FF14DCH   000219H   BYTE   INSEG    CODE           ?PR?TIMER_INILIZE?STC32G_TIMER
L251 LINKER/LOCATER V4.66.93.0                                                        11/26/2024  21:46:51  PAGE 6


FF14DDH   FF16F2H   000216H   BYTE   INSEG    CODE           ?PR?DMA_ISR_HANDLER?STC32G_DMA_ISR
FF16F3H   FF1826H   000134H   BYTE   INSEG    CODE           ?PR?CAN1_ISR_HANDLER?STC32G_CAN_ISR
FF1827H   FF195AH   000134H   BYTE   INSEG    CODE           ?PR?CAN2_ISR_HANDLER?STC32G_CAN_ISR
FF195BH   FF1A54H   0000FAH   BYTE   INSEG    CODE           ?PR?I2C_ISR_HANDLER?STC32G_I2C_ISR
FF1A55H   FF1B0EH   0000BAH   BYTE   INSEG    CODE           ?PR?I2C_INIT?STC32G_I2C
FF1B0FH   FF1B93H   000085H   BYTE   INSEG    CODE           ?PR?PWMA_ISR_HANDLER?STC32G_PWM_ISR
FF1B94H   FF1C18H   000085H   BYTE   INSEG    CODE           ?PR?PWMB_ISR_HANDLER?STC32G_PWM_ISR
FF1C19H   FF1C9AH   000082H   BYTE   INSEG    CODE           ?PR?NVIC_I2C_INIT?STC32G_NVIC
FF1C9BH   FF1CADH   000013H   BYTE   UNIT     CODE           ?C_C51STARTUP
FF1CAEH   FF1CB7H   00000AH   BYTE   UNIT     CODE           ?C_C51STARTUP?1
FF1CB8H   FF1D11H   00005AH   BYTE   UNIT     CODE           ?C_C51STARTUP?2
FF1D12H   FF1D14H   000003H   BYTE   UNIT     CODE           ?C_C51STARTUP?3
FF1D15H   FF1D82H   00006EH   BYTE   INSEG    CODE           ?PR?ADTOUART_INIT?APP_AD_UART
FF1D83H   FF1DEBH   000069H   BYTE   INSEG    CODE           ?PR?UART2_ISR_HANDLER?STC32G_UART_ISR
FF1DECH   FF1E50H   000065H   BYTE   INSEG    CODE           ?PR?UART1_ISR_HANDLER?STC32G_UART_ISR
FF1E51H   FF1EAFH   00005FH   BYTE   INSEG    CODE           ?PR?GET_ADCRESULT?STC32G_ADC
FF1EB0H   FF1F0CH   00005DH   BYTE   INSEG    CODE           ?PR?ADC_INILIZE?STC32G_ADC
FF1F0DH   FF1F62H   000056H   BYTE   INSEG    CODE           ?PR?DMA_LCM_ISR_HANDLER?STC32G_DMA_ISR
FF1F63H   FF1FAEH   00004CH   BYTE   INSEG    CODE           ?PR?SAMPLE_ADTOUART?APP_AD_UART
FF1FAFH   FF1FF9H   00004BH   BYTE   INSEG    CODE           ?PR?DMA_SPI_ISR_HANDLER?STC32G_DMA_ISR
FF1FFAH   FF2041H   000048H   BYTE   INSEG    CODE           ?PR?NVIC_TIMER0_INIT?STC32G_NVIC
FF2042H   FF2089H   000048H   BYTE   INSEG    CODE           ?PR?NVIC_ADC_INIT?STC32G_NVIC
FF208AH   FF20D1H   000048H   BYTE   INSEG    CODE           ?PR?NVIC_UART1_INIT?STC32G_NVIC
FF20D2H   FF2119H   000048H   BYTE   INSEG    CODE           ?PR?UART3_ISR_HANDLER?STC32G_UART_ISR
FF211AH   FF2161H   000048H   BYTE   INSEG    CODE           ?PR?UART4_ISR_HANDLER?STC32G_UART_ISR
FF2162H   FF21A8H   000047H   BYTE   INSEG    CODE           ?PR?RTC_ISR_HANDLER?STC32G_RTC_ISR
FF21A9H   FF21EBH   000043H   BYTE   UNIT     CODE           ?CO?APP
FF21ECH   FF222EH   000043H   BYTE   INSEG    CODE           ?PR?SPI_ISR_HANDLER?STC32G_SPI_ISR
FF222FH   FF226BH   00003DH   BYTE   INSEG    CODE           ?PR?TASK_MARKS_HANDLER_CALLBACK?TASK
FF226CH   FF22A3H   000038H   BYTE   INSEG    CODE           ?PR?SWITCH_CONFIG?SYSTEM_INIT
FF22A4H   FF22D6H   000033H   BYTE   INSEG    CODE           ?PR?DMA_I2CR_ISR_HANDLER?STC32G_DMA_ISR
FF22D7H   FF2309H   000033H   BYTE   INSEG    CODE           ?PR?DMA_I2CT_ISR_HANDLER?STC32G_DMA_ISR
FF230AH   FF233CH   000033H   BYTE   INSEG    CODE           ?PR?DMA_UART1RX_ISR_HANDLER?STC32G_DMA_ISR
FF233DH   FF236FH   000033H   BYTE   INSEG    CODE           ?PR?DMA_UART2RX_ISR_HANDLER?STC32G_DMA_ISR
FF2370H   FF23A2H   000033H   BYTE   INSEG    CODE           ?PR?DMA_UART3RX_ISR_HANDLER?STC32G_DMA_ISR
FF23A3H   FF23D5H   000033H   BYTE   INSEG    CODE           ?PR?DMA_UART1TX_ISR_HANDLER?STC32G_DMA_ISR
FF23D6H   FF2408H   000033H   BYTE   INSEG    CODE           ?PR?DMA_UART4RX_ISR_HANDLER?STC32G_DMA_ISR
FF2409H   FF243BH   000033H   BYTE   INSEG    CODE           ?PR?DMA_UART2TX_ISR_HANDLER?STC32G_DMA_ISR
FF243CH   FF246EH   000033H   BYTE   INSEG    CODE           ?PR?DMA_UART3TX_ISR_HANDLER?STC32G_DMA_ISR
FF246FH   FF24A1H   000033H   BYTE   INSEG    CODE           ?PR?DMA_UART4TX_ISR_HANDLER?STC32G_DMA_ISR
FF24A2H   FF24D4H   000033H   BYTE   INSEG    CODE           ?PR?DMA_M2M_ISR_HANDLER?STC32G_DMA_ISR
FF24D5H   FF2505H   000031H   BYTE   INSEG    CODE           ?PR?TIMER_CONFIG?SYSTEM_INIT
FF2506H   FF2535H   000030H   BYTE   INSEG    CODE           ?PR?TIMER0_ISR_HANDLER?STC32G_TIMER_ISR
FF2536H   FF2563H   00002EH   BYTE   INSEG    CODE           ?PR?SAMPLE_LAMP?APP_LAMP
FF2564H   FF2584H   000021H   BYTE   INSEG    CODE           ?PR?LCM_ISR_HANDLER?STC32G_LCM_ISR
FF2585H   FF25A4H   000020H   BYTE   INSEG    CODE           ?PR?START_I2C?MAIN
FF25A5H   FF25B2H   00000EH   BYTE   INSEG    CODE           ?PR?ADC_POWERCONTROL?STC32G_ADC
FF25B3H   FF25BFH   00000DH   BYTE   INSEG    CODE           ?PR?CMP_ISR_HANDLER?STC32G_COMPARE_ISR
FF25C0H   FF25CBH   00000CH   BYTE   INSEG    CODE           ?PR?PUTCHAR?STC32G_UART
FF25CCH   FF25D6H   00000BH   BYTE   INSEG    CODE           ?PR?SYS_INIT?SYSTEM_INIT
FF25D7H   FF25E1H   00000BH   BYTE   INSEG    CODE           ?PR?INT0_ISR_HANDLER?STC32G_EXTI_ISR
FF25E2H   FF25ECH   00000BH   BYTE   INSEG    CODE           ?PR?INT1_ISR_HANDLER?STC32G_EXTI_ISR
FF25EDH   FF25F7H   00000BH   BYTE   INSEG    CODE           ?PR?INT2_ISR_HANDLER?STC32G_EXTI_ISR
FF25F8H   FF2602H   00000BH   BYTE   INSEG    CODE           ?PR?INT3_ISR_HANDLER?STC32G_EXTI_ISR
FF2603H   FF260DH   00000BH   BYTE   INSEG    CODE           ?PR?INT4_ISR_HANDLER?STC32G_EXTI_ISR
FF260EH   FF2615H   000008H   BYTE   INSEG    CODE           ?PR?ADC_ISR_HANDLER?STC32G_ADC_ISR
FF2616H   FF261CH   000007H   BYTE   INSEG    CODE           ?PR?TIMER1_ISR_HANDLER?STC32G_TIMER_ISR
FF261DH   FF2623H   000007H   BYTE   INSEG    CODE           ?PR?TIMER2_ISR_HANDLER?STC32G_TIMER_ISR
FF2624H   FF262AH   000007H   BYTE   INSEG    CODE           ?PR?TIMER3_ISR_HANDLER?STC32G_TIMER_ISR
FF262BH   FF2631H   000007H   BYTE   INSEG    CODE           ?PR?TIMER4_ISR_HANDLER?STC32G_TIMER_ISR
FF2632H   FF2637H   000006H   BYTE   INSEG    CODE           ?PR?APP_CONFIG?APP
FF2638H   FF263DH   000006H   BYTE   INSEG    CODE           ?PR?LINREADREG?STC32G_LIN
FF263EH   FF28AAH   00026DH   BYTE   UNIT     HCONST         ?HC?APP_HSSPI
FF28ABH   FF29D6H   00012CH   BYTE   UNIT     HCONST         ?HC?APP_EEPROM
FF29D7H   FF2A98H   0000C2H   BYTE   UNIT     HCONST         ?HC?APP_DMA_I2C
L251 LINKER/LOCATER V4.66.93.0                                                        11/26/2024  21:46:51  PAGE 7


FF2A99H   FF2B1EH   000086H   BYTE   UNIT     HCONST         ?HC?APP_INT_UART
FF2B1FH   FF2B76H   000058H   BYTE   UNIT     HCONST         ?HC?APP_RTC
FF2B77H   FF2BCBH   000055H   BYTE   UNIT     HCONST         ?HC?APP_CAN
FF2BCCH   FF2C02H   000037H   BYTE   UNIT     HCONST         ?HC?APP_DMA_M2M
FF2C03H   FF2C2BH   000029H   BYTE   UNIT     HCONST         ?C_INITEDATA
FF2C2CH   FF2C52H   000027H   BYTE   UNIT     HCONST         ?HC?APP_DMA_SPI_PS
FF2C53H   FF2C74H   000022H   BYTE   UNIT     HCONST         ?HC?APP_DMA_UART
FF2C75H   FF2C90H   00001CH   BYTE   UNIT     HCONST         ?HC?APP_USART_LIN
FF2C91H   FF2CACH   00001CH   BYTE   UNIT     HCONST         ?HC?APP_USART2_LIN
FF2CADH   FF2CC7H   00001BH   BYTE   UNIT     HCONST         ?HC?APP_DMA_LCM
FF2CC8H   FF2CDEH   000017H   BYTE   UNIT     HCONST         ?C_INITHDATA
FF2CDFH   FF2CF4H   000016H   BYTE   UNIT     HCONST         ?HC?APP_LIN
FF2CF5H   FF2D04H   000010H   BYTE   UNIT     HCONST         ?HC?APP_AD_UART
FF2D05H   FF2D10H   00000CH   BYTE   UNIT     HCONST         ?HC?APP_DMA_AD

* * * * * * * * *   R E M O V E D     S E G M E N T S   * * * * * * * *
   *DEL*:           000007H   BYTE   INSEG    CODE           ?PR?START_GPIO?MAIN
   *DEL*:           000047H   BYTE   INSEG    CODE           ?PR?GPIO_CONFIG?SYSTEM_INIT
   *DEL*:           000032H   BYTE   INSEG    CODE           ?PR?UART_CONFIG?SYSTEM_INIT
   *DEL*:           000025H   BYTE   INSEG    CODE           ?PR?I2C_CONFIG?SYSTEM_INIT
   *DEL*:           00002EH   BYTE   INSEG    CODE           ?PR?ADC_CONFIG?SYSTEM_INIT
   *DEL*:           000034H   BYTE   INSEG    CODE           ?PR?CMP_CONFIG?SYSTEM_INIT
   *DEL*:           000031H   BYTE   INSEG    CODE           ?PR?SPI_CONFIG?SYSTEM_INIT
   *DEL*:           00003EH   BYTE   INSEG    CODE           ?PR?EXTI_CONFIG?SYSTEM_INIT
   *DEL*:           000005H   BYTE   UNIT     EDATA          ?ED?ADC_CONFIG?SYSTEM_INIT
   *DEL*:           000009H   BYTE   UNIT     EDATA          ?ED?UART_CONFIG?SYSTEM_INIT
   *DEL*:           000006H   BYTE   UNIT     EDATA          ?ED?I2C_CONFIG?SYSTEM_INIT
   *DEL*:           000007H   BYTE   UNIT     EDATA          ?ED?SPI_CONFIG?SYSTEM_INIT
   *DEL*:           000007H   BYTE   UNIT     EDATA          ?ED?CMP_CONFIG?SYSTEM_INIT
   *DEL*:           000001H   BYTE   UNIT     EDATA          ?ED?EXTI_CONFIG?SYSTEM_INIT
   *DEL*:           000029H   BYTE   INSEG    CODE           ?PR?TASK_PRO_HANDLER_CALLBACK?TASK
   *DEL*:           000042H   BYTE   INSEG    CODE           ?PR?DISPLAYSCAN?APP
   *DEL*:           000091H   BYTE   INSEG    CODE           ?PR?INTTOUART_INIT?APP_INT_UART
   *DEL*:           0000FDH   BYTE   INSEG    CODE           ?PR?SAMPLE_INTTOUART?APP_INT_UART
   *DEL*:           00000AH   BYTE   UNIT     EDATA          ?ED?INTTOUART_INIT?APP_INT_UART
   *DEL*:           0000CCH   BYTE   INSEG    CODE           ?PR?RTC_INIT?APP_RTC
   *DEL*:           00000BH   BYTE   INSEG    CODE           ?PR?IO_KEYDELAY?APP_RTC
   *DEL*:           0000C0H   BYTE   INSEG    CODE           ?PR?IO_KEYSCAN?APP_RTC
   *DEL*:           000125H   BYTE   INSEG    CODE           ?PR?SAMPLE_RTC?APP_RTC
   *DEL*:           00009AH   BYTE   INSEG    CODE           ?PR?DISPLAYRTC?APP_RTC
   *DEL*:           000060H   BYTE   INSEG    CODE           ?PR?WRITERTC?APP_RTC
   *DEL*:           000016H   BYTE   UNIT     EDATA          ?ED?RTC_INIT?APP_RTC
   *DEL*:           0000CFH   BYTE   INSEG    CODE           ?PR?SAMPLE_I2C_PS?APP_I2C_PS
   *DEL*:           00005EH   BYTE   INSEG    CODE           ?PR?I2C_PS_INIT?APP_I2C_PS
   *DEL*:           000006H   BYTE   UNIT     EDATA          ?ED?I2C_PS_INIT?APP_I2C_PS
   *DEL*:           000069H   BYTE   INSEG    CODE           ?PR?SPI_PS_INIT?APP_SPI_PS
   *DEL*:           000086H   BYTE   INSEG    CODE           ?PR?SAMPLE_SPI_PS?APP_SPI_PS
   *DEL*:           000010H   BYTE   UNIT     EDATA          ?ED?SPI_PS_INIT?APP_SPI_PS
   *DEL*:           000070H   BYTE   INSEG    CODE           ?PR?WDT_INIT?APP_WDT
   *DEL*:           000035H   BYTE   INSEG    CODE           ?PR?SAMPLE_WDT?APP_WDT
   *DEL*:           000003H   BYTE   UNIT     EDATA          ?ED?WDT_INIT?APP_WDT
   *DEL*:           00003AH   BYTE   INSEG    CODE           ?PR?GETDATALENGTH?APP_EEPROM
   *DEL*:           0001B5H   BYTE   INSEG    CODE           ?PR?SAMPLE_EEPROM?APP_EEPROM
   *DEL*:           00003DH   BYTE   INSEG    CODE           ?PR?CHECKDATA?APP_EEPROM
   *DEL*:           00005BH   BYTE   INSEG    CODE           ?PR?EEPROM_INIT?APP_EEPROM
   *DEL*:           000060H   BYTE   INSEG    CODE           ?PR?GETADDRESS?APP_EEPROM
   *DEL*:           000009H   BYTE   UNIT     EDATA          ?ED?EEPROM_INIT?APP_EEPROM
   *DEL*:           000002H   BYTE   UNIT     EDATA          ?ED?GETADDRESS?APP_EEPROM
   *DEL*:           000004H   BYTE   UNIT     EDATA          ?ED?SAMPLE_EEPROM?APP_EEPROM
   *DEL*:           000067H   BYTE   INSEG    CODE           ?PR?SAMPLE_DMA_AD?APP_DMA_AD
   *DEL*:           0000A7H   BYTE   INSEG    CODE           ?PR?DMA_AD_INIT?APP_DMA_AD
   *DEL*:           000014H   BYTE   UNIT     EDATA          ?ED?DMA_AD_INIT?APP_DMA_AD
   *DEL*:           000114H   BYTE   INSEG    CODE           ?PR?TEST_COLOR?APP_DMA_LCM
   *DEL*:           00001CH   BYTE   INSEG    CODE           ?PR?LCD_WR_REG?APP_DMA_LCM
   *DEL*:           00006CH   BYTE   INSEG    CODE           ?PR?DMA_LCM_INIT?APP_DMA_LCM
L251 LINKER/LOCATER V4.66.93.0                                                        11/26/2024  21:46:51  PAGE 8


   *DEL*:           000040H   BYTE   INSEG    CODE           ?PR?LCD_FILL?APP_DMA_LCM
   *DEL*:           0000FDH   BYTE   INSEG    CODE           ?PR?SHOW_STR?APP_DMA_LCM
   *DEL*:           000011H   BYTE   INSEG    CODE           ?PR?LCD_WR_DATA_16BIT?APP_DMA_LCM
   *DEL*:           0001C9H   BYTE   INSEG    CODE           ?PR?LCD_INIT?APP_DMA_LCM
   *DEL*:           00000EH   BYTE   INSEG    CODE           ?PR?LCD_DRAWPOINT?APP_DMA_LCM
   *DEL*:           000054H   BYTE   INSEG    CODE           ?PR?LCD_SETWINDOWS?APP_DMA_LCM
   *DEL*:           000003H   BYTE   INSEG    CODE           ?PR?SAMPLE_DMA_LCM?APP_DMA_LCM
   *DEL*:           00019DH   BYTE   INSEG    CODE           ?PR?LCD_SHOWCHAR?APP_DMA_LCM
   *DEL*:           000007H   BYTE   INSEG    CODE           ?PR?LCD_WRITERAM_PREPARE?APP_DMA_LCM
   *DEL*:           00001CH   BYTE   INSEG    CODE           ?PR?LCD_WR_DATA?APP_DMA_LCM
   *DEL*:           00001BH   BYTE   INSEG    CODE           ?PR?LCDRESET?APP_DMA_LCM
   *DEL*:           00000FH   BYTE   INSEG    CODE           ?PR?LCD_WRITEREG?APP_DMA_LCM
   *DEL*:           000089H   BYTE   INSEG    CODE           ?PR?LCD_DIRECTION?APP_DMA_LCM
   *DEL*:           00000CH   BYTE   UNIT     EDATA          ?ED?DMA_LCM_INIT?APP_DMA_LCM
   *DEL*:           000002H   BYTE   UNIT     EDATA          ?ED?LCD_FILL?APP_DMA_LCM
   *DEL*:           000004H   BYTE   UNIT     EDATA          ?ED?LCD_SETWINDOWS?APP_DMA_LCM
   *DEL*:           00000CH   BYTE   UNIT     EDATA          ?ED?LCD_SHOWCHAR?APP_DMA_LCM
   *DEL*:           00000DH   BYTE   UNIT     EDATA          ?ED?SHOW_STR?APP_DMA_LCM
   *DEL*:           0000A8H   BYTE   INSEG    CODE           ?PR?DMA_M2M_INIT?APP_DMA_M2M
   *DEL*:           000049H   BYTE   INSEG    CODE           ?PR?SAMPLE_DMA_M2M?APP_DMA_M2M
   *DEL*:           000012H   BYTE   UNIT     EDATA          ?ED?DMA_M2M_INIT?APP_DMA_M2M
   *DEL*:           00001BH   BYTE   INSEG    CODE           ?PR?SPI_DMA_SLAVE?APP_DMA_SPI_PS
   *DEL*:           000011H   BYTE   INSEG    CODE           ?PR?UART_DMA_RX?APP_DMA_SPI_PS
   *DEL*:           000011H   BYTE   INSEG    CODE           ?PR?UART_DMA_TX?APP_DMA_SPI_PS
   *DEL*:           000039H   BYTE   INSEG    CODE           ?PR?M2M_SPI_UART?APP_DMA_SPI_PS
   *DEL*:           000039H   BYTE   INSEG    CODE           ?PR?M2M_UART_SPI?APP_DMA_SPI_PS
   *DEL*:           000151H   BYTE   INSEG    CODE           ?PR?DMA_SPI_PS_INIT?APP_DMA_SPI_PS
   *DEL*:           000043H   BYTE   INSEG    CODE           ?PR?SAMPLE_DMA_SPI_PS?APP_DMA_SPI_PS
   *DEL*:           00001DH   BYTE   INSEG    CODE           ?PR?SPI_DMA_MASTER?APP_DMA_SPI_PS
   *DEL*:           00002EH   BYTE   UNIT     EDATA          ?ED?DMA_SPI_PS_INIT?APP_DMA_SPI_PS
   *DEL*:           0000DAH   BYTE   INSEG    CODE           ?PR?DMA_UART_INIT?APP_DMA_UART
   *DEL*:           000099H   BYTE   INSEG    CODE           ?PR?SAMPLE_DMA_UART?APP_DMA_UART
   *DEL*:           000013H   BYTE   UNIT     EDATA          ?ED?DMA_UART_INIT?APP_DMA_UART
   *DEL*:           0000F6H   BYTE   INSEG    CODE           ?PR?PWMA_OUTPUT_INIT?APP_PWMA_OUTPUT
   *DEL*:           0000ADH   BYTE   INSEG    CODE           ?PR?SAMPLE_PWMA_OUTPUT?APP_PWMA_OUTPUT
   *DEL*:           000009H   BYTE   UNIT     EDATA          ?ED?PWMA_OUTPUT_INIT?APP_PWMA_OUTPUT
   *DEL*:           0000E5H   BYTE   INSEG    CODE           ?PR?PWMB_OUTPUT_INIT?APP_PWMB_OUTPUT
   *DEL*:           0000ADH   BYTE   INSEG    CODE           ?PR?SAMPLE_PWMB_OUTPUT?APP_PWMB_OUTPUT
   *DEL*:           000009H   BYTE   UNIT     EDATA          ?ED?PWMB_OUTPUT_INIT?APP_PWMB_OUTPUT
   *DEL*:           000099H   BYTE   INSEG    CODE           ?PR?READNBYTE?APP_DMA_I2C
   *DEL*:           0000D6H   BYTE   INSEG    CODE           ?PR?DMA_I2C_INIT?APP_DMA_I2C
   *DEL*:           00007EH   BYTE   INSEG    CODE           ?PR?WRITENBYTE?APP_DMA_I2C
   *DEL*:           00018BH   BYTE   INSEG    CODE           ?PR?SAMPLE_DMA_I2C?APP_DMA_I2C
   *DEL*:           00003DH   BYTE   INSEG    CODE           ?PR?I2CCHECKDATA?APP_DMA_I2C
   *DEL*:           00004BH   BYTE   INSEG    CODE           ?PR?I2CGETADDRESS?APP_DMA_I2C
   *DEL*:           00003AH   BYTE   INSEG    CODE           ?PR?I2CGETDATALENGTH?APP_DMA_I2C
   *DEL*:           000019H   BYTE   UNIT     EDATA          ?ED?DMA_I2C_INIT?APP_DMA_I2C
   *DEL*:           0001C3H   BYTE   INSEG    CODE           ?PR?SAMPLE_CAN?APP_CAN
   *DEL*:           000169H   BYTE   INSEG    CODE           ?PR?CAN_INIT?APP_CAN
   *DEL*:           00001AH   BYTE   UNIT     EDATA          ?ED?CAN_INIT?APP_CAN
   *DEL*:           000093H   BYTE   INSEG    CODE           ?PR?SAMPLE_LIN?APP_LIN
   *DEL*:           0000B1H   BYTE   INSEG    CODE           ?PR?LIN_INIT?APP_LIN
   *DEL*:           00000FH   BYTE   UNIT     EDATA          ?ED?LIN_INIT?APP_LIN
   *DEL*:           0000BBH   BYTE   INSEG    CODE           ?PR?SAMPLE_USART_LIN?APP_USART_LIN
   *DEL*:           00009CH   BYTE   INSEG    CODE           ?PR?USART_LIN_INIT?APP_USART_LIN
   *DEL*:           00000EH   BYTE   UNIT     EDATA          ?ED?USART_LIN_INIT?APP_USART_LIN
   *DEL*:           0000AAH   BYTE   INSEG    CODE           ?PR?USART2_LIN_INIT?APP_USART2_LIN
   *DEL*:           0000BBH   BYTE   INSEG    CODE           ?PR?SAMPLE_USART2_LIN?APP_USART2_LIN
   *DEL*:           00000EH   BYTE   UNIT     EDATA          ?ED?USART2_LIN_INIT?APP_USART2_LIN
   *DEL*:           00003AH   BYTE   INSEG    CODE           ?PR?GETDATALENGTH?APP_HSSPI
   *DEL*:           000240H   BYTE   INSEG    CODE           ?PR?RX2_CHECK?APP_HSSPI
   *DEL*:           00018DH   BYTE   INSEG    CODE           ?PR?HSSPI_INIT?APP_HSSPI
   *DEL*:           000068H   BYTE   INSEG    CODE           ?PR?SPI_READ_NBYTES?APP_HSSPI
   *DEL*:           000080H   BYTE   INSEG    CODE           ?PR?SPI_WRITE_NBYTES?APP_HSSPI
   *DEL*:           00001CH   BYTE   INSEG    CODE           ?PR?HEX2ASCII?APP_HSSPI
L251 LINKER/LOCATER V4.66.93.0                                                        11/26/2024  21:46:51  PAGE 9


   *DEL*:           000012H   BYTE   INSEG    CODE           ?PR?FLASHWRITEENABLE?APP_HSSPI
   *DEL*:           000022H   BYTE   INSEG    CODE           ?PR?SAMPLE_HSSPI?APP_HSSPI
   *DEL*:           00004CH   BYTE   INSEG    CODE           ?PR?FLASHSECTORERASE?APP_HSSPI
   *DEL*:           00002BH   BYTE   INSEG    CODE           ?PR?CHECKDATA?APP_HSSPI
   *DEL*:           000058H   BYTE   INSEG    CODE           ?PR?FLASHCHECKID?APP_HSSPI
   *DEL*:           000062H   BYTE   INSEG    CODE           ?PR?GETADDRESS?APP_HSSPI
   *DEL*:           000085H   BYTE   INSEG    CODE           ?PR?SPI_READ_COMPARE?APP_HSSPI
   *DEL*:           00000DH   BYTE   INSEG    CODE           ?PR?CHECKFLASHBUSY?APP_HSSPI
   *DEL*:           000010H   BYTE   UNIT     EDATA          ?ED?HSSPI_INIT?APP_HSSPI
   *DEL*:           000002H   BYTE   UNIT     EDATA          ?ED?GETADDRESS?APP_HSSPI
   *DEL*:           000032H   BYTE   UNIT     EDATA          ?ED?RX2_CHECK?APP_HSSPI
   *DEL*:           000004H   BYTE   UNIT     EDATA          ?ED?FLASHSECTORERASE?APP_HSSPI
   *DEL*:           000006H   BYTE   UNIT     EDATA          ?ED?SPI_READ_NBYTES?APP_HSSPI
   *DEL*:           000007H   BYTE   UNIT     EDATA          ?ED?SPI_READ_COMPARE?APP_HSSPI
   *DEL*:           000005H   BYTE   UNIT     EDATA          ?ED?SPI_WRITE_NBYTES?APP_HSSPI
   *DEL*:           0000F2H   BYTE   INSEG    CODE           ?PR?HSPWM_INIT?APP_HSPWM
   *DEL*:           00015AH   BYTE   INSEG    CODE           ?PR?SAMPLE_HSPWM?APP_HSPWM
   *DEL*:           000006H   BYTE   UNIT     EDATA          ?ED?HSPWM_INIT?APP_HSPWM
   *DEL*:           000070H   BYTE   INSEG    CODE           ?PR?CMP_INILIZE?STC32G_COMPARE
   *DEL*:           000017H   BYTE   INSEG    CODE           ?PR?DELAY_MS?STC32G_DELAY
   *DEL*:           000013H   BYTE   INSEG    CODE           ?PR?DISABLEEEPROM?STC32G_EEPROM
   *DEL*:           00001BH   BYTE   INSEG    CODE           ?PR?EEPROM_SECTORERASE?STC32G_EEPROM
   *DEL*:           000047H   BYTE   INSEG    CODE           ?PR?EEPROM_READ_N?STC32G_EEPROM
   *DEL*:           000047H   BYTE   INSEG    CODE           ?PR?EEPROM_WRITE_N?STC32G_EEPROM
   *DEL*:           000015H   BYTE   INSEG    CODE           ?PR?EEPROM_TRIG?STC32G_EEPROM
   *DEL*:           000006H   BYTE   UNIT     EDATA          ?ED?EEPROM_READ_N?STC32G_EEPROM
   *DEL*:           000006H   BYTE   UNIT     EDATA          ?ED?EEPROM_WRITE_N?STC32G_EEPROM
   *DEL*:           000033H   BYTE   INSEG    CODE           ?PR?EXT_INILIZE?STC32G_EXTI
   *DEL*:           000256H   BYTE   INSEG    CODE           ?PR?GPIO_INILIZE?STC32G_GPIO
   *DEL*:           000017H   BYTE   INSEG    CODE           ?PR?SENDDATA?STC32G_I2C
   *DEL*:           00001CH   BYTE   INSEG    CODE           ?PR?RECVDATA?STC32G_I2C
   *DEL*:           000010H   BYTE   INSEG    CODE           ?PR?START?STC32G_I2C
   *DEL*:           000017H   BYTE   INSEG    CODE           ?PR?WAIT?STC32G_I2C
   *DEL*:           000017H   BYTE   INSEG    CODE           ?PR?SENDCMDDATA?STC32G_I2C
   *DEL*:           00005EH   BYTE   INSEG    CODE           ?PR?I2C_READNBYTE?STC32G_I2C
   *DEL*:           000010H   BYTE   INSEG    CODE           ?PR?STOP?STC32G_I2C
   *DEL*:           00000EH   BYTE   INSEG    CODE           ?PR?GET_MSBUSY_STATUS?STC32G_I2C
   *DEL*:           000043H   BYTE   INSEG    CODE           ?PR?I2C_WRITENBYTE?STC32G_I2C
   *DEL*:           000018H   BYTE   INSEG    CODE           ?PR?SENDACK?STC32G_I2C
   *DEL*:           000010H   BYTE   INSEG    CODE           ?PR?RECVACK?STC32G_I2C
   *DEL*:           000019H   BYTE   INSEG    CODE           ?PR?SENDNAK?STC32G_I2C
   *DEL*:           000003H   BYTE   UNIT     EDATA          ?ED?I2C_WRITENBYTE?STC32G_I2C
   *DEL*:           000003H   BYTE   UNIT     EDATA          ?ED?I2C_READNBYTE?STC32G_I2C
   *DEL*:           0000BCH   BYTE   INSEG    CODE           ?PR?LCM_INILIZE?STC32G_LCM
   *DEL*:           00004CH   BYTE   INSEG    CODE           ?PR?NVIC_DMA_ADC_INIT?STC32G_NVIC
   *DEL*:           00004CH   BYTE   INSEG    CODE           ?PR?NVIC_DMA_M2M_INIT?STC32G_NVIC
   *DEL*:           00004CH   BYTE   INSEG    CODE           ?PR?NVIC_DMA_LCM_INIT?STC32G_NVIC
   *DEL*:           000048H   BYTE   INSEG    CODE           ?PR?NVIC_INT0_INIT?STC32G_NVIC
   *DEL*:           000048H   BYTE   INSEG    CODE           ?PR?NVIC_INT1_INIT?STC32G_NVIC
   *DEL*:           00001AH   BYTE   INSEG    CODE           ?PR?NVIC_INT2_INIT?STC32G_NVIC
   *DEL*:           00001AH   BYTE   INSEG    CODE           ?PR?NVIC_INT3_INIT?STC32G_NVIC
   *DEL*:           00004CH   BYTE   INSEG    CODE           ?PR?NVIC_DMA_SPI_INIT?STC32G_NVIC
   *DEL*:           00001AH   BYTE   INSEG    CODE           ?PR?NVIC_INT4_INIT?STC32G_NVIC
   *DEL*:           000048H   BYTE   INSEG    CODE           ?PR?NVIC_TIMER1_INIT?STC32G_NVIC
   *DEL*:           00001AH   BYTE   INSEG    CODE           ?PR?NVIC_TIMER2_INIT?STC32G_NVIC
   *DEL*:           00001AH   BYTE   INSEG    CODE           ?PR?NVIC_TIMER3_INIT?STC32G_NVIC
   *DEL*:           00001AH   BYTE   INSEG    CODE           ?PR?NVIC_TIMER4_INIT?STC32G_NVIC
   *DEL*:           00004CH   BYTE   INSEG    CODE           ?PR?NVIC_DMA_I2CR_INIT?STC32G_NVIC
   *DEL*:           00004CH   BYTE   INSEG    CODE           ?PR?NVIC_DMA_I2CT_INIT?STC32G_NVIC
   *DEL*:           00004CH   BYTE   INSEG    CODE           ?PR?NVIC_DMA_UART1_RX_INIT?STC32G_NVIC
   *DEL*:           00004CH   BYTE   INSEG    CODE           ?PR?NVIC_DMA_UART2_RX_INIT?STC32G_NVIC
   *DEL*:           00004CH   BYTE   INSEG    CODE           ?PR?NVIC_DMA_UART3_RX_INIT?STC32G_NVIC
   *DEL*:           00004CH   BYTE   INSEG    CODE           ?PR?NVIC_DMA_UART1_TX_INIT?STC32G_NVIC
   *DEL*:           00004CH   BYTE   INSEG    CODE           ?PR?NVIC_DMA_UART4_RX_INIT?STC32G_NVIC
   *DEL*:           00004CH   BYTE   INSEG    CODE           ?PR?NVIC_DMA_UART2_TX_INIT?STC32G_NVIC
L251 LINKER/LOCATER V4.66.93.0                                                        11/26/2024  21:46:51  PAGE 10


   *DEL*:           00004CH   BYTE   INSEG    CODE           ?PR?NVIC_DMA_UART3_TX_INIT?STC32G_NVIC
   *DEL*:           00008BH   BYTE   INSEG    CODE           ?PR?NVIC_CAN_INIT?STC32G_NVIC
   *DEL*:           00004CH   BYTE   INSEG    CODE           ?PR?NVIC_DMA_UART4_TX_INIT?STC32G_NVIC
   *DEL*:           00003CH   BYTE   INSEG    CODE           ?PR?NVIC_LCM_INIT?STC32G_NVIC
   *DEL*:           000053H   BYTE   INSEG    CODE           ?PR?NVIC_CMP_INIT?STC32G_NVIC
   *DEL*:           00004EH   BYTE   INSEG    CODE           ?PR?NVIC_LIN_INIT?STC32G_NVIC
   *DEL*:           000046H   BYTE   INSEG    CODE           ?PR?NVIC_RTC_INIT?STC32G_NVIC
   *DEL*:           00004EH   BYTE   INSEG    CODE           ?PR?NVIC_SPI_INIT?STC32G_NVIC
   *DEL*:           00004EH   BYTE   INSEG    CODE           ?PR?NVIC_UART2_INIT?STC32G_NVIC
   *DEL*:           00004EH   BYTE   INSEG    CODE           ?PR?NVIC_UART3_INIT?STC32G_NVIC
   *DEL*:           00004EH   BYTE   INSEG    CODE           ?PR?NVIC_UART4_INIT?STC32G_NVIC
   *DEL*:           000096H   BYTE   INSEG    CODE           ?PR?NVIC_PWM_INIT?STC32G_NVIC
   *DEL*:           00000FH   BYTE   INSEG    CODE           ?PR?S_ACK?STC32G_SOFT_I2C
   *DEL*:           00004CH   BYTE   INSEG    CODE           ?PR?SI2C_WRITENBYTE?STC32G_SOFT_I2C
   *DEL*:           00000BH   BYTE   INSEG    CODE           ?PR?I2C_DELAY?STC32G_SOFT_I2C
   *DEL*:           000024H   BYTE   INSEG    CODE           ?PR?I2C_READABYTE?STC32G_SOFT_I2C
   *DEL*:           00002BH   BYTE   INSEG    CODE           ?PR?I2C_WRITEABYTE?STC32G_SOFT_I2C
   *DEL*:           000013H   BYTE   INSEG    CODE           ?PR?I2C_CHECK_ACK?STC32G_SOFT_I2C
   *DEL*:           000014H   BYTE   INSEG    CODE           ?PR?I2C_START?STC32G_SOFT_I2C
   *DEL*:           00000FH   BYTE   INSEG    CODE           ?PR?S_NOACK?STC32G_SOFT_I2C
   *DEL*:           00000FH   BYTE   INSEG    CODE           ?PR?I2C_STOP?STC32G_SOFT_I2C
   *DEL*:           000067H   BYTE   INSEG    CODE           ?PR?SI2C_READNBYTE?STC32G_SOFT_I2C
   *DEL*:           000003H   BYTE   UNIT     EDATA          ?ED?SI2C_WRITENBYTE?STC32G_SOFT_I2C
   *DEL*:           000003H   BYTE   UNIT     EDATA          ?ED?SI2C_READNBYTE?STC32G_SOFT_I2C
   *DEL*:           000020H   BYTE   INSEG    CODE           ?PR?PRINTSTRING?STC32G_SOFT_UART
   *DEL*:           00000DH   BYTE   INSEG    CODE           ?PR?BITTIME?STC32G_SOFT_UART
   *DEL*:           00002FH   BYTE   INSEG    CODE           ?PR?TXSEND?STC32G_SOFT_UART
   *DEL*:           000014H   BYTE   INSEG    CODE           ?PR?SPI_SETMODE?STC32G_SPI
   *DEL*:           000013H   BYTE   INSEG    CODE           ?PR?SPI_READBYTE?STC32G_SPI
   *DEL*:           000054H   BYTE   INSEG    CODE           ?PR?SPI_INIT?STC32G_SPI
   *DEL*:           000020H   BYTE   INSEG    CODE           ?PR?SPI_WRITEBYTE?STC32G_SPI
   *DEL*:           000016H   BYTE   INSEG    CODE           ?PR?PRINTSTRING1?STC32G_UART
   *DEL*:           000016H   BYTE   INSEG    CODE           ?PR?PRINTSTRING2?STC32G_UART
   *DEL*:           000016H   BYTE   INSEG    CODE           ?PR?PRINTSTRING3?STC32G_UART
   *DEL*:           000016H   BYTE   INSEG    CODE           ?PR?PRINTSTRING4?STC32G_UART
   *DEL*:           000010H   BYTE   INSEG    CODE           ?PR?TX2_WRITE2BUFF?STC32G_UART
   *DEL*:           000010H   BYTE   INSEG    CODE           ?PR?TX3_WRITE2BUFF?STC32G_UART
   *DEL*:           000010H   BYTE   INSEG    CODE           ?PR?TX4_WRITE2BUFF?STC32G_UART
   *DEL*:           000026H   BYTE   INSEG    CODE           ?PR?WDT_INILIZE?STC32G_WDT
   *DEL*:           000004H   BYTE   INSEG    CODE           ?PR?WDT_CLEAR?STC32G_WDT
   *DEL*:           000319H   BYTE   INSEG    CODE           ?PR?DMA_UART_INILIZE?STC32G_DMA
   *DEL*:           0000B1H   BYTE   INSEG    CODE           ?PR?DMA_I2C_INILIZE?STC32G_DMA
   *DEL*:           000063H   BYTE   INSEG    CODE           ?PR?DMA_ADC_INILIZE?STC32G_DMA
   *DEL*:           0000BCH   BYTE   INSEG    CODE           ?PR?DMA_M2M_INILIZE?STC32G_DMA
   *DEL*:           000070H   BYTE   INSEG    CODE           ?PR?DMA_LCM_INILIZE?STC32G_DMA
   *DEL*:           0000FEH   BYTE   INSEG    CODE           ?PR?DMA_SPI_INILIZE?STC32G_DMA
   *DEL*:           00017BH   BYTE   INSEG    CODE           ?PR?UPDATEPWM?STC32G_PWM
   *DEL*:           000031H   BYTE   INSEG    CODE           ?PR?READPWMA?STC32G_PWM
   *DEL*:           000031H   BYTE   INSEG    CODE           ?PR?READPWMB?STC32G_PWM
   *DEL*:           00061AH   BYTE   INSEG    CODE           ?PR?PWM_CONFIGURATION?STC32G_PWM
   *DEL*:           000174H   BYTE   INSEG    CODE           ?PR?UPDATEHSPWM?STC32G_PWM
   *DEL*:           000025H   BYTE   INSEG    CODE           ?PR?WRITEPWMA?STC32G_PWM
   *DEL*:           000025H   BYTE   INSEG    CODE           ?PR?WRITEPWMB?STC32G_PWM
   *DEL*:           000424H   BYTE   INSEG    CODE           ?PR?HSPWM_CONFIGURATION?STC32G_PWM
   *DEL*:           000007H   BYTE   UNIT     EDATA          ?ED?HSPWM_CONFIGURATION?STC32G_PWM
   *DEL*:           000177H   BYTE   INSEG    CODE           ?PR?RTC_INILIZE?STC32G_RTC
   *DEL*:           0000EFH   BYTE   INSEG    CODE           ?PR?CAN_INILIZE?STC32G_CAN
   *DEL*:           000159H   BYTE   INSEG    CODE           ?PR?CANREADFIFO?STC32G_CAN
   *DEL*:           000035H   BYTE   INSEG    CODE           ?PR?CANREADMSG?STC32G_CAN
   *DEL*:           000015H   BYTE   INSEG    CODE           ?PR?CANWRITEREG?STC32G_CAN
   *DEL*:           0001CBH   BYTE   INSEG    CODE           ?PR?CANSENDMSG?STC32G_CAN
   *DEL*:           000007H   BYTE   UNIT     EDATA          ?ED?CANREADFIFO?STC32G_CAN
   *DEL*:           000002H   BYTE   UNIT     EDATA          ?ED?CANREADMSG?STC32G_CAN
   *DEL*:           000006H   BYTE   UNIT     EDATA          ?ED?CANSENDMSG?STC32G_CAN
   *DEL*:           000024H   BYTE   INSEG    CODE           ?PR?LINSETBAUDRATE?STC32G_LIN
L251 LINKER/LOCATER V4.66.93.0                                                        11/26/2024  21:46:51  PAGE 11


   *DEL*:           000011H   BYTE   INSEG    CODE           ?PR?LINREADFRAME?STC32G_LIN
   *DEL*:           000008H   BYTE   INSEG    CODE           ?PR?SENDHEADCMD?STC32G_LIN
   *DEL*:           000033H   BYTE   INSEG    CODE           ?PR?LIN_INILIZE?STC32G_LIN
   *DEL*:           000008H   BYTE   INSEG    CODE           ?PR?SENDABORTCMD?STC32G_LIN
   *DEL*:           00001DH   BYTE   INSEG    CODE           ?PR?LINSENDFRAME?STC32G_LIN
   *DEL*:           000011H   BYTE   INSEG    CODE           ?PR?WAITLINREADY?STC32G_LIN
   *DEL*:           000008H   BYTE   INSEG    CODE           ?PR?RESPONSERXCMD?STC32G_LIN
   *DEL*:           000008H   BYTE   INSEG    CODE           ?PR?RESPONSETXCMD?STC32G_LIN
   *DEL*:           000038H   BYTE   INSEG    CODE           ?PR?LINSETHEADDELAY?STC32G_LIN
   *DEL*:           000008H   BYTE   INSEG    CODE           ?PR?SENDDATCMD?STC32G_LIN
   *DEL*:           00000CH   BYTE   INSEG    CODE           ?PR?LINTXRESPONSE?STC32G_LIN
   *DEL*:           000037H   BYTE   INSEG    CODE           ?PR?LINREADMSG?STC32G_LIN
   *DEL*:           000006H   BYTE   INSEG    CODE           ?PR?LINWRITEREG?STC32G_LIN
   *DEL*:           000005H   BYTE   INSEG    CODE           ?PR?GETLINERROR?STC32G_LIN
   *DEL*:           000037H   BYTE   INSEG    CODE           ?PR?LINSENDMSG?STC32G_LIN
   *DEL*:           000009H   BYTE   INSEG    CODE           ?PR?LINSETID?STC32G_LIN
   *DEL*:           00001DH   BYTE   INSEG    CODE           ?PR?LINSENDHEADERREAD?STC32G_LIN
   *DEL*:           000001H   BYTE   UNIT     EDATA          ?ED?LINREADMSG?STC32G_LIN
   *DEL*:           000001H   BYTE   UNIT     EDATA          ?ED?LINSENDMSG?STC32G_LIN
   *DEL*:           000032H   BYTE   INSEG    CODE           ?PR?IRC32KCLKCONFIG?STC32G_CLOCK
   *DEL*:           000031H   BYTE   INSEG    CODE           ?PR?HIRCCLKCONFIG?STC32G_CLOCK
   *DEL*:           000032H   BYTE   INSEG    CODE           ?PR?XOSCCLKCONFIG?STC32G_CLOCK
   *DEL*:           000058H   BYTE   INSEG    CODE           ?PR?HSPLLCLKCONFIG?STC32G_CLOCK
   *DEL*:           000029H   BYTE   INSEG    CODE           ?PR?USARTSENDBREAK?STC32G_USART_LIN
   *DEL*:           00001BH   BYTE   INSEG    CODE           ?PR?USARTLINSENDHEADER?STC32G_USART_LIN
   *DEL*:           00013BH   BYTE   INSEG    CODE           ?PR?UASRT_LIN_CONFIGURATION?STC32G_USART_LIN
   *DEL*:           00006CH   BYTE   INSEG    CODE           ?PR?USARTLINSENDPID?STC32G_USART_LIN
   *DEL*:           00003BH   BYTE   INSEG    CODE           ?PR?USARTLINSENDFRAME?STC32G_USART_LIN
   *DEL*:           000042H   BYTE   INSEG    CODE           ?PR?USARTLINSENDDATA?STC32G_USART_LIN
   *DEL*:           00002CH   BYTE   INSEG    CODE           ?PR?USARTLINSENDBYTE?STC32G_USART_LIN
   *DEL*:           000049H   BYTE   INSEG    CODE           ?PR?USARTLINBAUDRATE?STC32G_USART_LIN
   *DEL*:           000039H   BYTE   INSEG    CODE           ?PR?USARTLINSENDCHECKSUM?STC32G_USART_LIN
   *DEL*:           000003H   BYTE   UNIT     EDATA          ?ED?USARTLINSENDDATA?STC32G_USART_LIN
   *DEL*:           000004H   BYTE   UNIT     EDATA          ?ED?USARTLINSENDFRAME?STC32G_USART_LIN
   *DEL*:           000004H   BYTE   UNIT     CODE           ?PR?LMUL?STC_MDU32
   *DEL*:           000006H   BYTE   UNIT     CODE           ?PR?ULIDIV?STC_MDU32
   *DEL*:           000004H   BYTE   UNIT     CODE           ?PR?SLDIV?STC_MDU32



OVERLAY MAP OF MODULE:   .\list\STC32G-LIB (main)


FUNCTION/MODULE                               EDATA_GROUP
--> CALLED FUNCTION/MODULE                    START  STOP
=========================================================
?C_C51STARTUP?1                               ----- -----

*** NEW ROOT ********************************

ADC_ISR_Handler/STC32G_ADC_Isr                ----- -----

*** NEW ROOT ********************************

CMP_ISR_Handler/STC32G_Compare_Isr            ----- -----

*** NEW ROOT ********************************

INT0_ISR_Handler/STC32G_Exti_Isr              ----- -----

*** NEW ROOT ********************************

INT1_ISR_Handler/STC32G_Exti_Isr              ----- -----

*** NEW ROOT ********************************
L251 LINKER/LOCATER V4.66.93.0                                                        11/26/2024  21:46:51  PAGE 12



INT2_ISR_Handler/STC32G_Exti_Isr              ----- -----

*** NEW ROOT ********************************

INT3_ISR_Handler/STC32G_Exti_Isr              ----- -----

*** NEW ROOT ********************************

INT4_ISR_Handler/STC32G_Exti_Isr              ----- -----

*** NEW ROOT ********************************

I2C_ISR_Handler/STC32G_I2C_Isr                ----- -----

*** NEW ROOT ********************************

SPI_ISR_Handler/STC32G_SPI_Isr                ----- -----

*** NEW ROOT ********************************

Timer0_ISR_Handler/STC32G_Timer_Isr           ----- -----
  +--> Task_Marks_Handler_Callback/Task

Task_Marks_Handler_Callback/Task              ----- -----

*** NEW ROOT ********************************

Timer1_ISR_Handler/STC32G_Timer_Isr           ----- -----

*** NEW ROOT ********************************

Timer2_ISR_Handler/STC32G_Timer_Isr           ----- -----

*** NEW ROOT ********************************

Timer3_ISR_Handler/STC32G_Timer_Isr           ----- -----

*** NEW ROOT ********************************

Timer4_ISR_Handler/STC32G_Timer_Isr           ----- -----

*** NEW ROOT ********************************

UART1_ISR_Handler/STC32G_UART_Isr             ----- -----

*** NEW ROOT ********************************

UART2_ISR_Handler/STC32G_UART_Isr             ----- -----

*** NEW ROOT ********************************

UART3_ISR_Handler/STC32G_UART_Isr             ----- -----

*** NEW ROOT ********************************

UART4_ISR_Handler/STC32G_UART_Isr             ----- -----

*** NEW ROOT ********************************

DMA_LCM_ISR_Handler/STC32G_DMA_Isr            ----- -----

*** NEW ROOT ********************************

DMA_SPI_ISR_Handler/STC32G_DMA_Isr            ----- -----
L251 LINKER/LOCATER V4.66.93.0                                                        11/26/2024  21:46:51  PAGE 13



*** NEW ROOT ********************************

DMA_I2CR_ISR_Handler/STC32G_DMA_Isr           ----- -----

*** NEW ROOT ********************************

DMA_I2CT_ISR_Handler/STC32G_DMA_Isr           ----- -----

*** NEW ROOT ********************************

DMA_UART1RX_ISR_Handler/STC32G_DMA_Isr        ----- -----

*** NEW ROOT ********************************

DMA_UART2RX_ISR_Handler/STC32G_DMA_Isr        ----- -----

*** NEW ROOT ********************************

DMA_UART3RX_ISR_Handler/STC32G_DMA_Isr        ----- -----

*** NEW ROOT ********************************

DMA_UART1TX_ISR_Handler/STC32G_DMA_Isr        ----- -----

*** NEW ROOT ********************************

DMA_UART4RX_ISR_Handler/STC32G_DMA_Isr        ----- -----

*** NEW ROOT ********************************

DMA_UART2TX_ISR_Handler/STC32G_DMA_Isr        ----- -----

*** NEW ROOT ********************************

DMA_UART3TX_ISR_Handler/STC32G_DMA_Isr        ----- -----

*** NEW ROOT ********************************

DMA_ISR_Handler/STC32G_DMA_Isr                ----- -----

*** NEW ROOT ********************************

DMA_UART4TX_ISR_Handler/STC32G_DMA_Isr        ----- -----

*** NEW ROOT ********************************

DMA_ADC_ISR_Handler/STC32G_DMA_Isr            ----- -----

*** NEW ROOT ********************************

DMA_M2M_ISR_Handler/STC32G_DMA_Isr            ----- -----

*** NEW ROOT ********************************

PWMA_ISR_Handler/STC32G_PWM_Isr               ----- -----

*** NEW ROOT ********************************

PWMB_ISR_Handler/STC32G_PWM_Isr               ----- -----

*** NEW ROOT ********************************

RTC_ISR_Handler/STC32G_RTC_Isr                ----- -----

L251 LINKER/LOCATER V4.66.93.0                                                        11/26/2024  21:46:51  PAGE 14


*** NEW ROOT ********************************

LCM_ISR_Handler/STC32G_LCM_Isr                ----- -----

*** NEW ROOT ********************************

CAN1_ISR_Handler/STC32G_CAN_Isr               ----- -----
  +--> CanReadReg/STC32G_CAN

CanReadReg/STC32G_CAN                         ----- -----

*** NEW ROOT ********************************

CAN2_ISR_Handler/STC32G_CAN_Isr               ----- -----
  +--> CanReadReg/STC32G_CAN

*** NEW ROOT ********************************

LIN_ISR_Handler/STC32G_LIN_Isr                ----- -----
  +--> LinReadReg/STC32G_LIN

LinReadReg/STC32G_LIN                         ----- -----

*** NEW ROOT ********************************

?C_C51STARTUP                                 ----- -----

*** NEW ROOT ********************************

?C_C51STARTUP?3                               ----- -----
  +--> main/main

main/main                                     ----- -----
  +--> SYS_Init/system_init
  +--> start_i2c/main

SYS_Init/system_init                          ----- -----
  +--> Timer_config/system_init
  +--> Switch_config/system_init
  +--> APP_config/APP

Timer_config/system_init                      0560H 0566H
  +--> Timer_Inilize/STC32G_Timer
  +--> NVIC_Timer0_Init/STC32G_NVIC

Timer_Inilize/STC32G_Timer                    ----- -----

NVIC_Timer0_Init/STC32G_NVIC                  ----- -----

Switch_config/system_init                     ----- -----

APP_config/APP                                ----- -----
  +--> Lamp_init/APP_Lamp
  +--> ADtoUART_init/APP_AD_UART

Lamp_init/APP_Lamp                            ----- -----

ADtoUART_init/APP_AD_UART                     0560H 056DH
  +--> UART_Configuration/STC32G_UART
  +--> NVIC_UART1_Init/STC32G_NVIC
  +--> ADC_Inilize/STC32G_ADC
  +--> ADC_PowerControl/STC32G_ADC
  +--> NVIC_ADC_Init/STC32G_NVIC

UART_Configuration/STC32G_UART                ----- -----
L251 LINKER/LOCATER V4.66.93.0                                                        11/26/2024  21:46:51  PAGE 15


  +--> ULDIV/STC_MDU32

ULDIV/STC_MDU32                               ----- -----

NVIC_UART1_Init/STC32G_NVIC                   ----- -----

ADC_Inilize/STC32G_ADC                        ----- -----

ADC_PowerControl/STC32G_ADC                   ----- -----

NVIC_ADC_Init/STC32G_NVIC                     ----- -----

start_i2c/main                                0560H 0565H
  +--> I2C_Init/STC32G_I2C
  +--> NVIC_I2C_Init/STC32G_NVIC

I2C_Init/STC32G_I2C                           ----- -----

NVIC_I2C_Init/STC32G_NVIC                     ----- -----

*** NEW ROOT ********************************

?C_C51STARTUP?2                               ----- -----



PUBLIC SYMBOLS OF MODULE:  .\list\STC32G-LIB (main)


      VALUE       CLASS    TYPE      PUBLIC SYMBOL NAME
      =================================================
      000000FFH   NUMBER   ---       ?C?CODESEG
      00FF1CB8H   CODE     ---       ?C?INITEDATA
      00FF2C2AH   HCONST   WORD      ?C?INITEDATA_END
      00FF1CE1H   CODE     ---       ?C?INITHDATA
      00FF2CDDH   HCONST   WORD      ?C?INITHDATA_END
*DEL*:00000000H   CODE     ---       ?C?LMUL
      00FF101DH   CODE     ---       ?C?PRNFMT
      00FF0F92H   CODE     ---       ?C?SIDIV
*DEL*:00000000H   CODE     ---       ?C?SLDIV
      00FF0000H   CODE     ---       ?C?STARTUP
      00FF0006H   CODE     ---       ?C?ULDIV
*DEL*:00000000H   CODE     ---       ?C?ULIDIV
      00000001H   NUMBER   ---       ?C?XDATASEG
      00FF0000H   CODE     ---       ?C_STARTUP
*DEL*:1FFFFFFCH   EDATA    BYTE      ?EEPROM_read_n?BYTE
*DEL*:1FFFFFFCH   EDATA    BYTE      ?EEPROM_write_n?BYTE
*DEL*:1FFFFFF8H   EDATA    BYTE      ?LCD_Fill?BYTE
*DEL*:1FFFFFFCH   EDATA    BYTE      ?LCD_ShowChar?BYTE
      00000531H   EDATA    ---       ?printf?BYTE
*DEL*:1FFFFFFCH   EDATA    BYTE      ?Show_Str?BYTE
*DEL*:1FFFFFFCH   EDATA    BYTE      ?SPI_Read_Compare?BYTE
*DEL*:1FFFFFFCH   EDATA    BYTE      ?SPI_Read_Nbytes?BYTE
*DEL*:00000000H   CODE     ---       ADC_config
*SFR* 000000BCH   DATA     BYTE      ADC_CONTR
*SFR* 000000BCH.5 DATA     BIT       ADC_FLAG
      00FF1EB0H   CODE     ---       ADC_Inilize
      00FF260EH   CODE     ---       ADC_ISR_Handler
*SFR* 000000BCH.7 DATA     BIT       ADC_POWER
      00FF25A5H   CODE     ---       ADC_PowerControl
*SFR* 000000BDH   DATA     BYTE      ADC_RES
*SFR* 000000BEH   DATA     BYTE      ADC_RESL
*SFR* 000000BCH.6 DATA     BIT       ADC_START
*SFR* 000000DEH   DATA     BYTE      ADCCFG
      00FF1D15H   CODE     ---       ADtoUART_init
L251 LINKER/LOCATER V4.66.93.0                                                        11/26/2024  21:46:51  PAGE 16


      00FF2632H   CODE     ---       APP_config
      00FF01EEH   CODE     ---       asc2_1206
      00FF0662H   CODE     ---       asc2_1608
*SFR* 000000EFH   DATA     BYTE      AUXINTIF
*SFR* 0000008EH   DATA     BYTE      AUXR
*SFR* 00000097H   DATA     BYTE      AUXR2
      00000024H.4 BIT      BIT       B_1S
      00000024H.3 BIT      BIT       B_Alarm
      00000023H.3 BIT      BIT       B_Can1Read
      00000023H.5 BIT      BIT       B_Can1Send
      00000023H.4 BIT      BIT       B_Can2Read
      00000023H.6 BIT      BIT       B_Can2Send
      00000597H   EDATA    BYTE      B_FlashOK
      00000024H.6 BIT      BIT       B_SPI_Busy
      00000024H.1 BIT      BIT       B_ULinRX1_Flag
      00000024H.2 BIT      BIT       B_ULinRX2_Flag
*DEL*:00000000H   CODE     ---       BitTime
      00011000H   XDATA    ---       Buffer
      00FF16F3H   CODE     ---       CAN1_ISR_Handler
      0000033AH   EDATA    ---       CAN1_Rx
      0000040AH   EDATA    ---       CAN1_Tx
      00FF1827H   CODE     ---       CAN2_ISR_Handler
      000003A2H   EDATA    ---       CAN2_Rx
      00000417H   EDATA    ---       CAN2_Tx
*SFR* 00000097H.2 DATA     BIT       CAN2EN
*SFR* 000000F1H.5 DATA     BIT       CAN2IE
*DEL*:00000000H   CODE     ---       CAN_Inilize
*DEL*:00000000H   CODE     ---       CAN_init
*SFR* 00000097H.1 DATA     BIT       CANEN
*SFR* 000000F1H   DATA     BYTE      CANICR
*SFR* 000000F1H.1 DATA     BIT       CANIE
*DEL*:00000000H   CODE     ---       CanReadFifo
*DEL*:00000000H   CODE     ---       CanReadMsg
      00FF002EH   CODE     ---       CanReadReg
*SFR* 00000097H.3 DATA     BIT       CANSEL
*DEL*:00000000H   CODE     ---       CanSendMsg
*DEL*:00000000H   CODE     ---       CanWriteReg
*DEL*:00000000H   CODE     ---       CheckData
*DEL*:00000000H   CODE     ---       CheckFlashBusy
      000005B1H   EDATA    BYTE      chn
*SFR* 000000EAH   DATA     BYTE      CKCON
*SFR* 000000C1H.4 DATA     BIT       CLR_WDT
*DEL*:00000000H   CODE     ---       CMP_config
*DEL*:00000000H   CODE     ---       CMP_Inilize
      00FF25B3H   CODE     ---       CMP_ISR_Handler
*SFR* 000000E6H   DATA     BYTE      CMPCR1
*SFR* 000000E7H   DATA     BYTE      CMPCR2
*SFR* 000000E6H.7 DATA     BIT       CMPEN
*SFR* 000000E6H.6 DATA     BIT       CMPIF
*SFR* 000000E6H.1 DATA     BIT       CMPOE
*SFR* 000000E6H.0 DATA     BIT       CMPRES
      0000000BH   EDATA    BYTE      cnt50ms
      00010000H   XDATA    ---       Color
      00000026H   EDATA    ---       COM1
      0000002BH   EDATA    ---       COM2
      00000030H   EDATA    ---       COM3
      00000035H   EDATA    ---       COM4
*SFR* 000000CEH.2 DATA     BIT       CPHA
*SFR* 000000CEH.3 DATA     BIT       CPOL
*DEL*:00000000H   CODE     ---       delay_ms
*DEL*:00000000H   CODE     ---       DisableEEPROM
*SFR* 000000E7H.6 DATA     BIT       DISFLT
      0000001DH   EDATA    BYTE      display_index
      00000024H.7 BIT      BIT       DisplayFlag
*DEL*:00000000H   CODE     ---       DisplayRTC
L251 LINKER/LOCATER V4.66.93.0                                                        11/26/2024  21:46:51  PAGE 17


*DEL*:00000000H   CODE     ---       DisplayScan
*DEL*:00000000H   CODE     ---       DMA_AD_init
*DEL*:00000000H   CODE     ---       DMA_ADC_Inilize
      00FF00F6H   CODE     ---       DMA_ADC_ISR_Handler
*DEL*:00000000H   CODE     ---       DMA_I2C_Inilize
*DEL*:00000000H   CODE     ---       DMA_I2C_init
      00FF22A4H   CODE     ---       DMA_I2CR_ISR_Handler
      00FF22D7H   CODE     ---       DMA_I2CT_ISR_Handler
      00FF14DDH   CODE     ---       DMA_ISR_Handler
*DEL*:00000000H   CODE     ---       DMA_LCM_Inilize
*DEL*:00000000H   CODE     ---       DMA_LCM_init
      00FF1F0DH   CODE     ---       DMA_LCM_ISR_Handler
*DEL*:00000000H   CODE     ---       DMA_M2M_Inilize
*DEL*:00000000H   CODE     ---       DMA_M2M_init
      00FF24A2H   CODE     ---       DMA_M2M_ISR_Handler
*DEL*:00000000H   CODE     ---       DMA_SPI_Inilize
      00FF1FAFH   CODE     ---       DMA_SPI_ISR_Handler
*DEL*:00000000H   CODE     ---       DMA_SPI_PS_init
      00FF230AH   CODE     ---       DMA_UART1RX_ISR_Handler
      00FF23A3H   CODE     ---       DMA_UART1TX_ISR_Handler
      00FF233DH   CODE     ---       DMA_UART2RX_ISR_Handler
      00FF2409H   CODE     ---       DMA_UART2TX_ISR_Handler
      00FF2370H   CODE     ---       DMA_UART3RX_ISR_Handler
      00FF243CH   CODE     ---       DMA_UART3TX_ISR_Handler
      00FF23D6H   CODE     ---       DMA_UART4RX_ISR_Handler
      00FF246FH   CODE     ---       DMA_UART4TX_ISR_Handler
*DEL*:00000000H   CODE     ---       DMA_UART_Inilize
*DEL*:00000000H   CODE     ---       DMA_UART_init
      00011910H   XDATA    ---       DmaAdBuffer
      00000021H.7 BIT      BIT       DmaADCFlag
      00011810H   XDATA    ---       DmaBuffer
      00000021H.2 BIT      BIT       DmaI2CRFlag
      00000021H.3 BIT      BIT       DmaI2CTFlag
*SFR* 000000EDH   DATA     BYTE      DMAIR
      00000021H.5 BIT      BIT       DmaLcmFlag
      00000022H.0 BIT      BIT       DmaM2MFlag
      00000020H.0 BIT      BIT       DmaRx1Flag
      00000020H.1 BIT      BIT       DmaRx2Flag
      00000020H.2 BIT      BIT       DmaRx3Flag
      00000020H.4 BIT      BIT       DmaRx4Flag
      00011410H   XDATA    ---       DmaRxBuffer
      00000020H.3 BIT      BIT       DmaTx1Flag
      00000020H.5 BIT      BIT       DmaTx2Flag
      00000020H.6 BIT      BIT       DmaTx3Flag
      00000020H.7 BIT      BIT       DmaTx4Flag
      00011510H   XDATA    ---       DmaTxBuffer
*SFR* 000000CEH.5 DATA     BIT       DORD
*SFR* 000000A8H.7 DATA     BIT       EA
*SFR* 000000A8H.5 DATA     BIT       EADC
*SFR* 000000BAH.7 DATA     BIT       EAXFR
      000005B2H   EDATA    BYTE      EEPROM_addr
*DEL*:00000000H   CODE     ---       EEPROM_init
*DEL*:00000000H   CODE     ---       EEPROM_read_n
*DEL*:00000000H   CODE     ---       EEPROM_SectorErase
*DEL*:00000000H   CODE     ---       EEPROM_Trig
*DEL*:00000000H   CODE     ---       EEPROM_write_n
*SFR* 000000C1H.5 DATA     BIT       EN_WDT
*SFR* 000000A8H.4 DATA     BIT       ES
*SFR* 000000AFH.0 DATA     BIT       ES2
*SFR* 000000AFH.3 DATA     BIT       ES3
*SFR* 000000AFH.4 DATA     BIT       ES4
*SFR* 000000AFH.1 DATA     BIT       ESPI
*SFR* 000000A8H.1 DATA     BIT       ET0
*SFR* 000000A8H.3 DATA     BIT       ET1
*SFR* 000000AFH.2 DATA     BIT       ET2
L251 LINKER/LOCATER V4.66.93.0                                                        11/26/2024  21:46:51  PAGE 18


*SFR* 000000AFH.5 DATA     BIT       ET3
*SFR* 000000AFH.6 DATA     BIT       ET4
*SFR* 000000A8H.0 DATA     BIT       EX0
*SFR* 000000A8H.2 DATA     BIT       EX1
*SFR* 0000008FH.4 DATA     BIT       EX2
*SFR* 0000008FH.5 DATA     BIT       EX3
*SFR* 0000008FH.6 DATA     BIT       EX4
*DEL*:00000000H   CODE     ---       Ext_Inilize
*DEL*:00000000H   CODE     ---       Exti_config
*SFR* 000000D0H.5 DATA     BIT       F0
      0000059AH   EDATA    DWORD     Flash_addr
*DEL*:00000000H   CODE     ---       FlashCheckID
*DEL*:00000000H   CODE     ---       FlashSectorErase
*DEL*:00000000H   CODE     ---       FlashWriteEnable
      00FF1E51H   CODE     ---       Get_ADCResult
*DEL*:00000000H   CODE     ---       Get_MSBusy_Status
*DEL*:00000000H   CODE     ---       GetAddress
*DEL*:00000000H   CODE     ---       GetDataLength
*DEL*:00000000H   CODE     ---       GetLinError
*DEL*:00000000H   CODE     ---       GPIO_config
*DEL*:00000000H   CODE     ---       GPIO_Inilize
*DEL*:00000000H   CODE     ---       Hex2Ascii
*DEL*:00000000H   CODE     ---       HIRCClkConfig
      00000017H   EDATA    BYTE      hour
*DEL*:00000000H   CODE     ---       HSPllClkConfig
*DEL*:00000000H   CODE     ---       HSPWM_Configuration
*DEL*:00000000H   CODE     ---       HSPWM_init
*DEL*:00000000H   CODE     ---       HSSPI_init
      0000059FH   EDATA    ---       I2C_Buffer
*DEL*:00000000H   CODE     ---       I2C_Check_ACK
*DEL*:00000000H   CODE     ---       I2C_config
*DEL*:00000000H   CODE     ---       I2C_Delay
      00FF1A55H   CODE     ---       I2C_Init
      00FF195BH   CODE     ---       I2C_ISR_Handler
*DEL*:00000000H   CODE     ---       I2C_PS_init
*DEL*:00000000H   CODE     ---       I2C_ReadAbyte
*DEL*:00000000H   CODE     ---       I2C_ReadNbyte
*DEL*:00000000H   CODE     ---       I2C_Start
*DEL*:00000000H   CODE     ---       I2C_Stop
*DEL*:00000000H   CODE     ---       I2C_WriteAbyte
*DEL*:00000000H   CODE     ---       I2C_WriteNbyte
      000005ABH   EDATA    ---       I2CIsr
      00011610H   XDATA    ---       I2cRxBuffer
      00011710H   XDATA    ---       I2cTxBuffer
*SFR* 000000F6H   DATA     BYTE      IAP_ADDRE
*SFR* 000000C3H   DATA     BYTE      IAP_ADDRH
*SFR* 000000C4H   DATA     BYTE      IAP_ADDRL
*SFR* 000000C5H   DATA     BYTE      IAP_CMD
*SFR* 000000C7H   DATA     BYTE      IAP_CONTR
*SFR* 000000C2H   DATA     BYTE      IAP_DATA
*SFR* 000000F5H   DATA     BYTE      IAP_TPS
*SFR* 000000C6H   DATA     BYTE      IAP_TRIG
*SFR* 000000C7H.7 DATA     BIT       IAPEN
*SFR* 000000C1H.3 DATA     BIT       IDL_WDT
*SFR* 000000A8H   DATA     BYTE      IE
*SFR* 00000088H.1 DATA     BIT       IE0
*SFR* 00000088H.3 DATA     BIT       IE1
*SFR* 000000AFH   DATA     BYTE      IE2
      000005AEH   EDATA    BYTE      index
*SFR* 000000B0H.2 DATA     BIT       INT0
      00FF25D7H   CODE     ---       INT0_ISR_Handler
*SFR* 000000B0H.3 DATA     BIT       INT1
      00FF25E2H   CODE     ---       INT1_ISR_Handler
*SFR* 000000B0H.6 DATA     BIT       INT2
      00FF25EDH   CODE     ---       INT2_ISR_Handler
L251 LINKER/LOCATER V4.66.93.0                                                        11/26/2024  21:46:51  PAGE 19


*SFR* 000000B0H.7 DATA     BIT       INT3
      00FF25F8H   CODE     ---       INT3_ISR_Handler
*SFR* 000000B0H.0 DATA     BIT       INT4
      00FF2603H   CODE     ---       INT4_ISR_Handler
*SFR* 0000008FH   DATA     BYTE      INTCLKO
*DEL*:00000000H   CODE     ---       INTtoUART_init
*SFR* 000000E7H.7 DATA     BIT       INVCMPO
*DEL*:00000000H   CODE     ---       IO_KeyDelay
      00000018H   EDATA    BYTE      IO_KeyHoldCnt
*DEL*:00000000H   CODE     ---       IO_KeyScan
      00000016H   EDATA    BYTE      IO_KeyState
      00000019H   EDATA    BYTE      IO_KeyState1
*SFR* 000000B8H   DATA     BYTE      IP
*SFR* 000000B5H   DATA     BYTE      IP2
*SFR* 000000B6H   DATA     BYTE      IP2H
*SFR* 000000DFH   DATA     BYTE      IP3
*SFR* 000000EEH   DATA     BYTE      IP3H
*SFR* 000000B7H   DATA     BYTE      IPH
*DEL*:00000000H   CODE     ---       IRC32KClkConfig
*SFR* 0000009DH   DATA     BYTE      IRCBAND
*SFR* 00000088H.0 DATA     BIT       IT0
*SFR* 00000088H.2 DATA     BIT       IT1
      00000009H   EDATA    BYTE      Key1_cnt
      00000023H.7 BIT      BIT       Key1_Flag
      0000000AH   EDATA    BYTE      Key2_cnt
      00000024H.0 BIT      BIT       Key2_Flag
      00000015H   EDATA    BYTE      KeyCode
      0000001AH   EDATA    BYTE      KeyHoldCnt
      00FF00C6H   CODE     ---       Lamp_init
*SFR* 000000B0H.4 DATA     BIT       LCD_CS
*DEL*:00000000H   CODE     ---       LCD_direction
*DEL*:00000000H   CODE     ---       LCD_DrawPoint
*DEL*:00000000H   CODE     ---       LCD_Fill
*DEL*:00000000H   CODE     ---       LCD_Init
*SFR* 000000C0H.3 DATA     BIT       LCD_RESET
*DEL*:00000000H   CODE     ---       LCD_SetWindows
*DEL*:00000000H   CODE     ---       LCD_ShowChar
*DEL*:00000000H   CODE     ---       LCD_WR_DATA
*DEL*:00000000H   CODE     ---       LCD_WR_DATA_16Bit
*DEL*:00000000H   CODE     ---       LCD_WR_REG
*DEL*:00000000H   CODE     ---       LCD_WriteRAM_Prepare
*DEL*:00000000H   CODE     ---       LCD_WriteReg
      00000570H   EDATA    ---       lcddev
*DEL*:00000000H   CODE     ---       LCDReset
      0000001EH   EDATA    WORD      LCM_Cnt
*DEL*:00000000H   CODE     ---       LCM_Inilize
      00FF2564H   CODE     ---       LCM_ISR_Handler
      00000025H.0 BIT      BIT       LcmFlag
      0000000CH   EDATA    ---       LED8
      000005AFH   EDATA    BYTE      ledIndex
      00FF011BH   CODE     ---       ledNum
      0000057BH   EDATA    BYTE      Lin_ID
*DEL*:00000000H   CODE     ---       LIN_Inilize
*DEL*:00000000H   CODE     ---       LIN_init
      00FF0126H   CODE     ---       LIN_ISR_Handler
*SFR* 000000FAH   DATA     BYTE      LINAR
*SFR* 000000FBH   DATA     BYTE      LINDR
*SFR* 00000097H.0 DATA     BIT       LINEN
*SFR* 000000F9H   DATA     BYTE      LINICR
*SFR* 000000F9H.1 DATA     BIT       LINIE
*DEL*:00000000H   CODE     ---       LinReadFrame
*DEL*:00000000H   CODE     ---       LinReadMsg
      00FF2638H   CODE     ---       LinReadReg
      00000025H.1 BIT      BIT       LinRxFlag
*DEL*:00000000H   CODE     ---       LinSendFrame
L251 LINKER/LOCATER V4.66.93.0                                                        11/26/2024  21:46:51  PAGE 20


*DEL*:00000000H   CODE     ---       LinSendHeaderRead
*DEL*:00000000H   CODE     ---       LinSendMsg
*DEL*:00000000H   CODE     ---       LinSetBaudrate
*DEL*:00000000H   CODE     ---       LinSetHeadDelay
*DEL*:00000000H   CODE     ---       LinSetID
*DEL*:00000000H   CODE     ---       LinTxResponse
*DEL*:00000000H   CODE     ---       LinWriteReg
*DEL*:00000000H   CODE     ---       M2M_SPI_UART
*DEL*:00000000H   CODE     ---       M2M_UART_SPI
      00FF006EH   CODE     ---       main
      00000014H   EDATA    BYTE      minute
      0000001BH   EDATA    WORD      msecond
*SFR* 000000CEH.4 DATA     BIT       MSTR
*SFR* 000000E6H.4 DATA     BIT       NIE
      00FF2042H   CODE     ---       NVIC_ADC_Init
*DEL*:00000000H   CODE     ---       NVIC_CAN_Init
*DEL*:00000000H   CODE     ---       NVIC_CMP_Init
*DEL*:00000000H   CODE     ---       NVIC_DMA_ADC_Init
*DEL*:00000000H   CODE     ---       NVIC_DMA_I2CR_Init
*DEL*:00000000H   CODE     ---       NVIC_DMA_I2CT_Init
*DEL*:00000000H   CODE     ---       NVIC_DMA_LCM_Init
*DEL*:00000000H   CODE     ---       NVIC_DMA_M2M_Init
*DEL*:00000000H   CODE     ---       NVIC_DMA_SPI_Init
*DEL*:00000000H   CODE     ---       NVIC_DMA_UART1_Rx_Init
*DEL*:00000000H   CODE     ---       NVIC_DMA_UART1_Tx_Init
*DEL*:00000000H   CODE     ---       NVIC_DMA_UART2_Rx_Init
*DEL*:00000000H   CODE     ---       NVIC_DMA_UART2_Tx_Init
*DEL*:00000000H   CODE     ---       NVIC_DMA_UART3_Rx_Init
*DEL*:00000000H   CODE     ---       NVIC_DMA_UART3_Tx_Init
*DEL*:00000000H   CODE     ---       NVIC_DMA_UART4_Rx_Init
*DEL*:00000000H   CODE     ---       NVIC_DMA_UART4_Tx_Init
      00FF1C19H   CODE     ---       NVIC_I2C_Init
*DEL*:00000000H   CODE     ---       NVIC_INT0_Init
*DEL*:00000000H   CODE     ---       NVIC_INT1_Init
*DEL*:00000000H   CODE     ---       NVIC_INT2_Init
*DEL*:00000000H   CODE     ---       NVIC_INT3_Init
*DEL*:00000000H   CODE     ---       NVIC_INT4_Init
*DEL*:00000000H   CODE     ---       NVIC_LCM_Init
*DEL*:00000000H   CODE     ---       NVIC_LIN_Init
*DEL*:00000000H   CODE     ---       NVIC_PWM_Init
*DEL*:00000000H   CODE     ---       NVIC_RTC_Init
*DEL*:00000000H   CODE     ---       NVIC_SPI_Init
      00FF1FFAH   CODE     ---       NVIC_Timer0_Init
*DEL*:00000000H   CODE     ---       NVIC_Timer1_Init
*DEL*:00000000H   CODE     ---       NVIC_Timer2_Init
*DEL*:00000000H   CODE     ---       NVIC_Timer3_Init
*DEL*:00000000H   CODE     ---       NVIC_Timer4_Init
      00FF208AH   CODE     ---       NVIC_UART1_Init
*DEL*:00000000H   CODE     ---       NVIC_UART2_Init
*DEL*:00000000H   CODE     ---       NVIC_UART3_Init
*DEL*:00000000H   CODE     ---       NVIC_UART4_Init
*SFR* 00000080H   DATA     BYTE      P0
*SFR* 00000080H.0 DATA     BIT       P00
*SFR* 00000080H.1 DATA     BIT       P01
*SFR* 00000094H   DATA     BYTE      P0M0
*SFR* 00000093H   DATA     BYTE      P0M1
*SFR* 00000090H   DATA     BYTE      P1
*SFR* 00000092H   DATA     BYTE      P1M0
*SFR* 00000091H   DATA     BYTE      P1M1
*SFR* 000000A0H   DATA     BYTE      P2
*SFR* 00000096H   DATA     BYTE      P2M0
*SFR* 00000095H   DATA     BYTE      P2M1
*SFR* 000000B0H   DATA     BYTE      P3
*SFR* 000000B0H.2 DATA     BIT       P32
*SFR* 000000B0H.3 DATA     BIT       P33
L251 LINKER/LOCATER V4.66.93.0                                                        11/26/2024  21:46:51  PAGE 21


*SFR* 000000B2H   DATA     BYTE      P3M0
*SFR* 000000B1H   DATA     BYTE      P3M1
*SFR* 000000C0H   DATA     BYTE      P4
*SFR* 000000C0H.0 DATA     BIT       P40
*SFR* 000000C0H.6 DATA     BIT       P46
*SFR* 000000C0H.7 DATA     BIT       P47
*SFR* 000000B4H   DATA     BYTE      P4M0
*SFR* 000000B3H   DATA     BYTE      P4M1
*SFR* 000000C8H   DATA     BYTE      P5
*SFR* 000000CAH   DATA     BYTE      P5M0
*SFR* 000000C9H   DATA     BYTE      P5M1
*SFR* 000000E8H   DATA     BYTE      P6
*SFR* 000000E8H.3 DATA     BIT       P63
*SFR* 000000E8H.4 DATA     BIT       P64
*SFR* 000000E8H.5 DATA     BIT       P65
*SFR* 000000E8H.6 DATA     BIT       P66
*SFR* 000000CCH   DATA     BYTE      P6M0
*SFR* 000000CBH   DATA     BYTE      P6M1
*SFR* 000000F8H   DATA     BYTE      P7
*SFR* 000000E2H   DATA     BYTE      P7M0
*SFR* 000000E1H   DATA     BYTE      P7M1
*SFR* 000000A0H.2 DATA     BIT       P_PM25LV040_CE
*SFR* 000000A0H.5 DATA     BIT       P_PM25LV040_SCK
*SFR* 000000A0H.3 DATA     BIT       P_PM25LV040_SI
*SFR* 000000A2H   DATA     BYTE      P_SW1
*SFR* 000000BAH   DATA     BYTE      P_SW2
*SFR* 000000BBH   DATA     BYTE      P_SW3
*SFR* 00000090H.7 DATA     BIT       P_TXD
*SFR* 000000B8H.5 DATA     BIT       PADC
*SFR* 000000B7H.5 DATA     BIT       PADCH
*SFR* 000000F1H.7 DATA     BIT       PCAN2H
*SFR* 000000F1H.4 DATA     BIT       PCAN2L
*SFR* 000000F1H.3 DATA     BIT       PCANH
*SFR* 000000F1H.0 DATA     BIT       PCANL
*SFR* 000000B5H.5 DATA     BIT       PCMP
*SFR* 000000B6H.5 DATA     BIT       PCMPH
*SFR* 00000087H   DATA     BYTE      PCON
*SFR* 00000087H.1 DATA     BIT       PD
*SFR* 000000E6H.5 DATA     BIT       PIE
*SFR* 000000F9H.3 DATA     BIT       PLINH
*SFR* 000000F9H.0 DATA     BIT       PLINL
      00000596H   EDATA    BYTE      PM25LV040_ID
      00000598H   EDATA    BYTE      PM25LV040_ID1
      00000599H   EDATA    BYTE      PM25LV040_ID2
      0000056EH   EDATA    WORD      POINT_COLOR
*SFR* 000000B5H.2 DATA     BIT       PPWMA
*SFR* 000000B6H.2 DATA     BIT       PPWMAH
*SFR* 000000B5H.3 DATA     BIT       PPWMB
*SFR* 000000B6H.3 DATA     BIT       PPWMBH
      00FF0FC4H   CODE     NEAR LAB  printf
*DEL*:00000000H   CODE     ---       PrintString
*DEL*:00000000H   CODE     ---       PrintString1
*DEL*:00000000H   CODE     ---       PrintString2
*DEL*:00000000H   CODE     ---       PrintString3
*DEL*:00000000H   CODE     ---       PrintString4
*SFR* 000000DFH.2 DATA     BIT       PRTC
*SFR* 000000EEH.2 DATA     BIT       PRTCH
*SFR* 000000B8H.4 DATA     BIT       PS
*SFR* 000000B5H.0 DATA     BIT       PS2
*SFR* 000000B6H.0 DATA     BIT       PS2H
*SFR* 000000DFH.0 DATA     BIT       PS3
*SFR* 000000EEH.0 DATA     BIT       PS3H
*SFR* 000000DFH.1 DATA     BIT       PS4
*SFR* 000000EEH.1 DATA     BIT       PS4H
*SFR* 000000B7H.4 DATA     BIT       PSH
L251 LINKER/LOCATER V4.66.93.0                                                        11/26/2024  21:46:51  PAGE 22


*SFR* 000000B5H.1 DATA     BIT       PSPI
*SFR* 000000B6H.1 DATA     BIT       PSPIH
*SFR* 000000D0H   DATA     BYTE      PSW
*SFR* 000000B8H.1 DATA     BIT       PT0
*SFR* 000000B7H.1 DATA     BIT       PT0H
*SFR* 000000B8H.3 DATA     BIT       PT1
*SFR* 000000B7H.3 DATA     BIT       PT1H
      00FF25C0H   CODE     ---       putchar
      00000022H.3 BIT      BIT       PWM1_Flag
      00000022H.4 BIT      BIT       PWM2_Flag
      00000022H.5 BIT      BIT       PWM3_Flag
      00000022H.6 BIT      BIT       PWM4_Flag
      00000022H.7 BIT      BIT       PWM5_Flag
      00000023H.0 BIT      BIT       PWM6_Flag
      00000023H.1 BIT      BIT       PWM7_Flag
      00000023H.2 BIT      BIT       PWM8_Flag
*DEL*:00000000H   CODE     ---       PWM_Configuration
      00000531H   EDATA    ---       PWMA_Duty
      00FF1B0FH   CODE     ---       PWMA_ISR_Handler
*DEL*:00000000H   CODE     ---       PWMA_Output_init
      00000541H   EDATA    ---       PWMB_Duty
      00FF1B94H   CODE     ---       PWMB_ISR_Handler
*DEL*:00000000H   CODE     ---       PWMB_Output_init
*SFR* 000000B8H.0 DATA     BIT       PX0
*SFR* 000000B7H.0 DATA     BIT       PX0H
*SFR* 000000B8H.2 DATA     BIT       PX1
*SFR* 000000B7H.2 DATA     BIT       PX1H
*DEL*:00000000H   CODE     ---       ReadNbyte
*DEL*:00000000H   CODE     ---       ReadPWMA
*DEL*:00000000H   CODE     ---       ReadPWMB
*DEL*:00000000H   CODE     ---       RecvACK
*DEL*:00000000H   CODE     ---       RecvData
*SFR* 00000098H.4 DATA     BIT       REN
*SFR* 000000DEH.5 DATA     BIT       RESFMT
*DEL*:00000000H   CODE     ---       ResponseRxCmd
*DEL*:00000000H   CODE     ---       ResponseTxCmd
*SFR* 00000098H.0 DATA     BIT       RI
*SFR* 000000FFH   DATA     BYTE      RSTCFG
*DEL*:00000000H   CODE     ---       RTC_Inilize
*DEL*:00000000H   CODE     ---       RTC_init
      00FF2162H   CODE     ---       RTC_ISR_Handler
      0000003AH   EDATA    ---       RX1_Buffer
      000000BAH   EDATA    ---       RX2_Buffer
*DEL*:00000000H   CODE     ---       RX2_Check
      0000013AH   EDATA    ---       RX3_Buffer
      000001FAH   EDATA    ---       RX4_Buffer
*SFR* 0000008EH.0 DATA     BIT       S1BRT
*SFR* 0000008EH.5 DATA     BIT       S1M0x6
*SFR* 0000009BH   DATA     BYTE      S2BUF
*SFR* 0000009AH   DATA     BYTE      S2CON
*SFR* 0000009AH.4 DATA     BIT       S2REN
*SFR* 0000009AH.0 DATA     BIT       S2RI
*SFR* 0000009AH.1 DATA     BIT       S2TI
      00000021H.0 BIT      BIT       s2uFlag
*SFR* 000000ADH   DATA     BYTE      S3BUF
*SFR* 000000ACH   DATA     BYTE      S3CON
*SFR* 000000ACH.4 DATA     BIT       S3REN
*SFR* 000000ACH.0 DATA     BIT       S3RI
*SFR* 000000ACH.7 DATA     BIT       S3SM0
*SFR* 000000ACH.6 DATA     BIT       S3ST3
*SFR* 000000ACH.1 DATA     BIT       S3TI
*SFR* 000000FEH   DATA     BYTE      S4BUF
*SFR* 000000FDH   DATA     BYTE      S4CON
*SFR* 000000FDH.4 DATA     BIT       S4REN
*SFR* 000000FDH.0 DATA     BIT       S4RI
L251 LINKER/LOCATER V4.66.93.0                                                        11/26/2024  21:46:51  PAGE 23


*SFR* 000000FDH.7 DATA     BIT       S4SM0
*SFR* 000000FDH.6 DATA     BIT       S4ST4
*SFR* 000000FDH.1 DATA     BIT       S4TI
*DEL*:00000000H   CODE     ---       S_ACK
*DEL*:00000000H   CODE     ---       S_NoACK
      00FF1F63H   CODE     ---       Sample_ADtoUART
*DEL*:00000000H   CODE     ---       Sample_CAN
*DEL*:00000000H   CODE     ---       Sample_DMA_AD
*DEL*:00000000H   CODE     ---       Sample_DMA_I2C
*DEL*:00000000H   CODE     ---       Sample_DMA_LCM
*DEL*:00000000H   CODE     ---       Sample_DMA_M2M
*DEL*:00000000H   CODE     ---       Sample_DMA_SPI_PS
*DEL*:00000000H   CODE     ---       Sample_DMA_UART
*DEL*:00000000H   CODE     ---       Sample_EEPROM
*DEL*:00000000H   CODE     ---       Sample_HSPWM
*DEL*:00000000H   CODE     ---       Sample_HSSPI
*DEL*:00000000H   CODE     ---       Sample_I2C_PS
*DEL*:00000000H   CODE     ---       Sample_INTtoUART
      00FF2536H   CODE     ---       Sample_Lamp
*DEL*:00000000H   CODE     ---       Sample_LIN
*DEL*:00000000H   CODE     ---       Sample_PWMA_Output
*DEL*:00000000H   CODE     ---       Sample_PWMB_Output
*DEL*:00000000H   CODE     ---       Sample_RTC
*DEL*:00000000H   CODE     ---       Sample_SPI_PS
*DEL*:00000000H   CODE     ---       Sample_USART2_LIN
*DEL*:00000000H   CODE     ---       Sample_USART_LIN
*DEL*:00000000H   CODE     ---       Sample_WDT
*SFR* 00000099H   DATA     BYTE      SBUF
*SFR* 00000080H.0 DATA     BIT       SCL
*SFR* 00000098H   DATA     BYTE      SCON
*SFR* 00000080H.1 DATA     BIT       SDA
      00000008H   EDATA    BYTE      second
*DEL*:00000000H   CODE     ---       SendAbortCmd
*DEL*:00000000H   CODE     ---       SendACK
*DEL*:00000000H   CODE     ---       SendCmdData
*DEL*:00000000H   CODE     ---       SendData
*DEL*:00000000H   CODE     ---       SendDatCmd
*DEL*:00000000H   CODE     ---       SendHeadCmd
*DEL*:00000000H   CODE     ---       SendNAK
*DEL*:00000000H   CODE     ---       Show_Str
*DEL*:00000000H   CODE     ---       SI2C_ReadNbyte
*DEL*:00000000H   CODE     ---       SI2C_WriteNbyte
*SFR* 000000C8H.2 DATA     BIT       SLP_N
*SFR* 00000087H.7 DATA     BIT       SMOD
*SFR* 000000CEH   DATA     BYTE      SPCTL
*SFR* 000000CFH   DATA     BYTE      SPDAT
*SFR* 000000CEH.6 DATA     BIT       SPEN
*DEL*:00000000H   CODE     ---       SPI_config
*DEL*:00000000H   CODE     ---       SPI_DMA_Master
*DEL*:00000000H   CODE     ---       SPI_DMA_Slave
*DEL*:00000000H   CODE     ---       SPI_Init
      00FF21ECH   CODE     ---       SPI_ISR_Handler
*DEL*:00000000H   CODE     ---       SPI_PS_init
*DEL*:00000000H   CODE     ---       SPI_Read_Compare
*DEL*:00000000H   CODE     ---       SPI_Read_Nbytes
*DEL*:00000000H   CODE     ---       SPI_ReadByte
      00000425H   EDATA    ---       SPI_RxBuffer
      000005B4H   EDATA    BYTE      SPI_RxCnt
      00000424H   EDATA    BYTE      SPI_RxTimerOut
*DEL*:00000000H   CODE     ---       SPI_SetMode
*SFR* 000000A0H.2 DATA     BIT       SPI_SS_2
*DEL*:00000000H   CODE     ---       SPI_Write_Nbytes
*DEL*:00000000H   CODE     ---       SPI_WriteByte
*SFR* 000000CDH.7 DATA     BIT       SPIF
      00011210H   XDATA    ---       SpiRxBuffer
L251 LINKER/LOCATER V4.66.93.0                                                        11/26/2024  21:46:51  PAGE 24


      00000022H.1 BIT      BIT       SpiRxFlag
      00000021H.6 BIT      BIT       SpiSendFlag
      00011310H   XDATA    ---       SpiTxBuffer
      00000022H.2 BIT      BIT       SpiTxFlag
*SFR* 000000CDH   DATA     BYTE      SPSTAT
*SFR* 000000CEH.7 DATA     BIT       SSIG
      0000059EH   EDATA    BYTE      sst_byte
*DEL*:00000000H   CODE     ---       Start
*DEL*:00000000H   CODE     ---       start_gpio
      00FF2585H   CODE     ---       start_i2c
*DEL*:00000000H   CODE     ---       Stop
      00FF226CH   CODE     ---       Switch_config
      00FF25CCH   CODE     ---       SYS_Init
*SFR* 00000089H.2 DATA     BIT       T0_CT
*SFR* 0000008FH.0 DATA     BIT       T0CLKO
*SFR* 0000008EH.7 DATA     BIT       T0x12
*SFR* 00000089H.6 DATA     BIT       T1_CT
*SFR* 0000008FH.1 DATA     BIT       T1CLKO
*SFR* 0000008EH.6 DATA     BIT       T1x12
*SFR* 0000008EH.3 DATA     BIT       T2_CT
*SFR* 0000008FH.2 DATA     BIT       T2CLKO
*SFR* 000000D6H   DATA     BYTE      T2H
*SFR* 000000D7H   DATA     BYTE      T2L
*SFR* 0000008EH.4 DATA     BIT       T2R
*SFR* 0000008EH.2 DATA     BIT       T2x12
*SFR* 000000DDH.2 DATA     BIT       T3_CT
*SFR* 000000DDH.0 DATA     BIT       T3CLKO
*SFR* 000000D4H   DATA     BYTE      T3H
*SFR* 000000D5H   DATA     BYTE      T3L
*SFR* 000000DDH.3 DATA     BIT       T3R
*SFR* 000000DDH.1 DATA     BIT       T3x12
*SFR* 000000DDH.6 DATA     BIT       T4_CT
*SFR* 000000DDH.4 DATA     BIT       T4CLKO
*SFR* 000000D2H   DATA     BYTE      T4H
*SFR* 000000D3H   DATA     BYTE      T4L
*SFR* 000000DDH.7 DATA     BIT       T4R
*SFR* 000000DDH   DATA     BYTE      T4T3M
*SFR* 000000DDH.5 DATA     BIT       T4x12
      00FF21A9H   CODE     ---       T_COM
      00FF21C1H   CODE     ---       t_display
      00FF21B1H   CODE     ---       T_KeyTable
      00FF222FH   CODE     ---       Task_Marks_Handler_Callback
*DEL*:00000000H   CODE     ---       Task_Pro_Handler_Callback
      00000551H   EDATA    BYTE      Tasks_Max
*SFR* 00000088H   DATA     BYTE      TCON
      000005A7H   EDATA    ---       temp
*DEL*:00000000H   CODE     ---       Test_Color
*SFR* 0000008CH   DATA     BYTE      TH0
*SFR* 0000008DH   DATA     BYTE      TH1
*SFR* 00000098H.1 DATA     BIT       TI
      00FF2506H   CODE     ---       Timer0_ISR_Handler
      00FF2616H   CODE     ---       Timer1_ISR_Handler
      00FF261DH   CODE     ---       Timer2_ISR_Handler
      00FF2624H   CODE     ---       Timer3_ISR_Handler
      00FF262BH   CODE     ---       Timer4_ISR_Handler
      00FF24D5H   CODE     ---       Timer_config
      00FF12C4H   CODE     ---       Timer_Inilize
*SFR* 0000008AH   DATA     BYTE      TL0
*SFR* 0000008BH   DATA     BYTE      TL1
*SFR* 00000089H   DATA     BYTE      TMOD
      000004A5H   EDATA    ---       tmp
*SFR* 00000088H.4 DATA     BIT       TR0
*SFR* 00000088H.6 DATA     BIT       TR1
      0000017AH   EDATA    ---       TX1_Buffer
      00FF00AEH   CODE     ---       TX1_write2buff
L251 LINKER/LOCATER V4.66.93.0                                                        11/26/2024  21:46:51  PAGE 25


      0000023AH   EDATA    ---       TX2_Buffer
*DEL*:00000000H   CODE     ---       TX2_write2buff
      000002BAH   EDATA    ---       TX3_Buffer
*DEL*:00000000H   CODE     ---       TX3_write2buff
      000002FAH   EDATA    ---       TX4_Buffer
*DEL*:00000000H   CODE     ---       TX4_write2buff
      0000057CH   EDATA    ---       TX_BUF
*DEL*:00000000H   CODE     ---       TxSend
      00000595H   EDATA    BYTE      U2Lin_ID
      00000021H.1 BIT      BIT       u2sFlag
      00FF1DECH   CODE     ---       UART1_ISR_Handler
      00FF1D83H   CODE     ---       UART2_ISR_Handler
      00FF20D2H   CODE     ---       UART3_ISR_Handler
      00FF211AH   CODE     ---       UART4_ISR_Handler
*DEL*:00000000H   CODE     ---       UART_config
      00FF0C52H   CODE     ---       UART_Configuration
*DEL*:00000000H   CODE     ---       UART_DMA_Rx
*DEL*:00000000H   CODE     ---       UART_DMA_Tx
      00000024H.5 BIT      BIT       UartReceived
      00011010H   XDATA    ---       UartRxBuffer
      00000021H.4 BIT      BIT       UartSendFlag
      00011110H   XDATA    ---       UartTxBuffer
*DEL*:00000000H   CODE     ---       UASRT_LIN_Configuration
      0000058CH   EDATA    BYTE      ULin_ID
*DEL*:00000000H   CODE     ---       UpdateHSPwm
*DEL*:00000000H   CODE     ---       UpdatePwm
      0000058DH   EDATA    ---       USART2_BUF
*DEL*:00000000H   CODE     ---       USART2_LIN_init
      00000584H   EDATA    ---       USART_BUF
*DEL*:00000000H   CODE     ---       USART_LIN_init
*DEL*:00000000H   CODE     ---       UsartLinBaudrate
*DEL*:00000000H   CODE     ---       UsartLinSendByte
*DEL*:00000000H   CODE     ---       UsartLinSendChecksum
*DEL*:00000000H   CODE     ---       UsartLinSendData
*DEL*:00000000H   CODE     ---       UsartLinSendFrame
*DEL*:00000000H   CODE     ---       UsartLinSendHeader
*DEL*:00000000H   CODE     ---       UsartLinSendPID
*DEL*:00000000H   CODE     ---       UsartSendBreak
*SFR* 000000DCH   DATA     BYTE      USBCLK
*SFR* 000000F4H   DATA     BYTE      USBCON
*DEL*:00000000H   CODE     ---       Wait
*DEL*:00000000H   CODE     ---       WaitLinReady
      000005B0H   EDATA    BYTE      WakeUpCnt
      000005B3H   EDATA    BYTE      WakeUpSource
*SFR* 000000CDH.6 DATA     BIT       WCOL
*DEL*:00000000H   CODE     ---       WDT_Clear
*SFR* 000000C1H   DATA     BYTE      WDT_CONTR
*DEL*:00000000H   CODE     ---       WDT_Inilize
*DEL*:00000000H   CODE     ---       WDT_init
*DEL*:00000000H   CODE     ---       WriteNbyte
*DEL*:00000000H   CODE     ---       WritePWMA
*DEL*:00000000H   CODE     ---       WritePWMB
*DEL*:00000000H   CODE     ---       WriteRTC
*SFR* 000000E9H   DATA     BYTE      WTST
*DEL*:00000000H   CODE     ---       XOSCClkConfig



SYMBOL TABLE OF MODULE:  .\list\STC32G-LIB (main)

      VALUE       REP       CLASS    TYPE      SYMBOL NAME
      ====================================================
      ---         MODULE    ---      ---       main
      00FF2585H   PUBLIC    CODE     ---       start_i2c
      00FF006EH   PUBLIC    CODE     ---       main
L251 LINKER/LOCATER V4.66.93.0                                                        11/26/2024  21:46:51  PAGE 26


      00000094H   SFRSYM    DATA     BYTE      P0M0
      000000D0H   SFRSYM    DATA     BYTE      PSW
      000000BAH.7 SFRSYM    DATA     BIT       EAXFR
      0000009DH   SFRSYM    DATA     BYTE      IRCBAND
      00000097H   SFRSYM    DATA     BYTE      AUXR2
      000000EAH   SFRSYM    DATA     BYTE      CKCON
      000000EFH   SFRSYM    DATA     BYTE      AUXINTIF
      000000FDH   SFRSYM    DATA     BYTE      S4CON
      000000ACH   SFRSYM    DATA     BYTE      S3CON
      0000009AH   SFRSYM    DATA     BYTE      S2CON
      000000B7H   SFRSYM    DATA     BYTE      IPH
      000000CDH   SFRSYM    DATA     BYTE      SPSTAT
      000000DDH   SFRSYM    DATA     BYTE      T4T3M
      000000C1H   SFRSYM    DATA     BYTE      WDT_CONTR
      000000E9H   SFRSYM    DATA     BYTE      WTST
      000000DFH   SFRSYM    DATA     BYTE      IP3
      000000F4H   SFRSYM    DATA     BYTE      USBCON
      000000B5H   SFRSYM    DATA     BYTE      IP2
      000000FFH   SFRSYM    DATA     BYTE      RSTCFG
      000000C7H   SFRSYM    DATA     BYTE      IAP_CONTR
      000000F9H   SFRSYM    DATA     BYTE      LINICR
      0000008EH   SFRSYM    DATA     BYTE      AUXR
      000000AFH   SFRSYM    DATA     BYTE      IE2
      00000088H   SFRSYM    DATA     BYTE      TCON
      00000089H   SFRSYM    DATA     BYTE      TMOD
      00000098H   SFRSYM    DATA     BYTE      SCON
      000000F1H   SFRSYM    DATA     BYTE      CANICR
      00000087H   SFRSYM    DATA     BYTE      PCON
      000000BCH   SFRSYM    DATA     BYTE      ADC_CONTR
      000000E7H   SFRSYM    DATA     BYTE      CMPCR2
      000000E6H   SFRSYM    DATA     BYTE      CMPCR1
      000000DEH   SFRSYM    DATA     BYTE      ADCCFG
      000000B8H   SFRSYM    DATA     BYTE      IP
      0000008FH   SFRSYM    DATA     BYTE      INTCLKO
      000000EEH   SFRSYM    DATA     BYTE      IP3H
      000000B6H   SFRSYM    DATA     BYTE      IP2H
      000000A8H   SFRSYM    DATA     BYTE      IE
      000000BBH   SFRSYM    DATA     BYTE      P_SW3
      000000BAH   SFRSYM    DATA     BYTE      P_SW2
      000000A2H   SFRSYM    DATA     BYTE      P_SW1
      000000CEH   SFRSYM    DATA     BYTE      SPCTL
      000000F8H   SFRSYM    DATA     BYTE      P7
      000000A8H.7 SFRSYM    DATA     BIT       EA
      000000E8H   SFRSYM    DATA     BYTE      P6
      000000C8H   SFRSYM    DATA     BYTE      P5
      000000C0H   SFRSYM    DATA     BYTE      P4
      000000B0H   SFRSYM    DATA     BYTE      P3
      000000A0H   SFRSYM    DATA     BYTE      P2
      00000090H   SFRSYM    DATA     BYTE      P1
      00000080H   SFRSYM    DATA     BYTE      P0
      00000093H   SFRSYM    DATA     BYTE      P0M1

      00FF2585H   BLOCK     CODE     ---       LVL=0
      00000560H   SYMBOL    EDATA    ---       I2C_InitStruct
      00FF2585H   LINE      CODE     ---       #38
      00FF2585H   LINE      CODE     ---       #39
      00FF2585H   LINE      CODE     ---       #41
      00FF258BH   LINE      CODE     ---       #42
      00FF258FH   LINE      CODE     ---       #43
      00FF2594H   LINE      CODE     ---       #44
      00FF259BH   LINE      CODE     ---       #45
      ---         BLOCKEND  ---      ---       LVL=0

      00FF006EH   BLOCK     CODE     ---       LVL=0
      00FF006EH   LINE      CODE     ---       #55
L251 LINKER/LOCATER V4.66.93.0                                                        11/26/2024  21:46:51  PAGE 27


      00FF006EH   LINE      CODE     ---       #57
      00FF0071H   LINE      CODE     ---       #58
      00FF0074H   LINE      CODE     ---       #59
      00FF0077H   LINE      CODE     ---       #61
      00FF007AH   LINE      CODE     ---       #63
      00FF007DH   LINE      CODE     ---       #64
      00FF007FH   LINE      CODE     ---       #66
      ---         BLOCKEND  ---      ---       LVL=0

      ---         MODULE    ---      ---       system_init
      00FF226CH   PUBLIC    CODE     ---       Switch_config
      00FF24D5H   PUBLIC    CODE     ---       Timer_config
      00FF25CCH   PUBLIC    CODE     ---       SYS_Init
      00000094H   SFRSYM    DATA     BYTE      P0M0
      000000D0H   SFRSYM    DATA     BYTE      PSW
      0000009DH   SFRSYM    DATA     BYTE      IRCBAND
      00000097H   SFRSYM    DATA     BYTE      AUXR2
      000000EFH   SFRSYM    DATA     BYTE      AUXINTIF
      000000FDH   SFRSYM    DATA     BYTE      S4CON
      000000ACH   SFRSYM    DATA     BYTE      S3CON
      0000009AH   SFRSYM    DATA     BYTE      S2CON
      000000B7H   SFRSYM    DATA     BYTE      IPH
      000000CDH   SFRSYM    DATA     BYTE      SPSTAT
      000000DDH   SFRSYM    DATA     BYTE      T4T3M
      000000C1H   SFRSYM    DATA     BYTE      WDT_CONTR
      000000DFH   SFRSYM    DATA     BYTE      IP3
      000000F4H   SFRSYM    DATA     BYTE      USBCON
      000000B5H   SFRSYM    DATA     BYTE      IP2
      000000FFH   SFRSYM    DATA     BYTE      RSTCFG
      000000C7H   SFRSYM    DATA     BYTE      IAP_CONTR
      000000F9H   SFRSYM    DATA     BYTE      LINICR
      0000008EH   SFRSYM    DATA     BYTE      AUXR
      000000AFH   SFRSYM    DATA     BYTE      IE2
      00000088H   SFRSYM    DATA     BYTE      TCON
      00000089H   SFRSYM    DATA     BYTE      TMOD
      00000098H   SFRSYM    DATA     BYTE      SCON
      000000F1H   SFRSYM    DATA     BYTE      CANICR
      00000087H   SFRSYM    DATA     BYTE      PCON
      000000BCH   SFRSYM    DATA     BYTE      ADC_CONTR
      000000E7H   SFRSYM    DATA     BYTE      CMPCR2
      000000E6H   SFRSYM    DATA     BYTE      CMPCR1
      000000DEH   SFRSYM    DATA     BYTE      ADCCFG
      000000B8H   SFRSYM    DATA     BYTE      IP
      0000008FH   SFRSYM    DATA     BYTE      INTCLKO
      000000EEH   SFRSYM    DATA     BYTE      IP3H
      000000B6H   SFRSYM    DATA     BYTE      IP2H
      000000A8H   SFRSYM    DATA     BYTE      IE
      000000BBH   SFRSYM    DATA     BYTE      P_SW3
      000000BAH   SFRSYM    DATA     BYTE      P_SW2
      000000A2H   SFRSYM    DATA     BYTE      P_SW1
      000000CEH   SFRSYM    DATA     BYTE      SPCTL
      000000F8H   SFRSYM    DATA     BYTE      P7
      000000A8H.7 SFRSYM    DATA     BIT       EA
      000000E1H   SFRSYM    DATA     BYTE      P7M1
      000000E8H   SFRSYM    DATA     BYTE      P6
      000000C8H   SFRSYM    DATA     BYTE      P5
      000000CBH   SFRSYM    DATA     BYTE      P6M1
      000000E2H   SFRSYM    DATA     BYTE      P7M0
      000000C0H   SFRSYM    DATA     BYTE      P4
      000000CCH   SFRSYM    DATA     BYTE      P6M0
      000000B0H   SFRSYM    DATA     BYTE      P3
      000000B3H   SFRSYM    DATA     BYTE      P4M1
      000000A0H   SFRSYM    DATA     BYTE      P2
      000000B1H   SFRSYM    DATA     BYTE      P3M1
      000000B4H   SFRSYM    DATA     BYTE      P4M0
L251 LINKER/LOCATER V4.66.93.0                                                        11/26/2024  21:46:51  PAGE 28


      00000090H   SFRSYM    DATA     BYTE      P1
      00000095H   SFRSYM    DATA     BYTE      P2M1
      000000B2H   SFRSYM    DATA     BYTE      P3M0
      00000080H   SFRSYM    DATA     BYTE      P0
      00000091H   SFRSYM    DATA     BYTE      P1M1
      00000096H   SFRSYM    DATA     BYTE      P2M0
      00000092H   SFRSYM    DATA     BYTE      P1M0
      00000093H   SFRSYM    DATA     BYTE      P0M1

      00FF24D5H   BLOCK     CODE     ---       LVL=0
      00000560H   SYMBOL    EDATA    ---       TIM_InitStructure
      00FF24D5H   LINE      CODE     ---       #52
      00FF24D5H   LINE      CODE     ---       #53
      00FF24D5H   LINE      CODE     ---       #55
      00FF24DAH   LINE      CODE     ---       #56
      00FF24E0H   LINE      CODE     ---       #57
      00FF24E5H   LINE      CODE     ---       #58
      00FF24EDH   LINE      CODE     ---       #59
      00FF24F1H   LINE      CODE     ---       #60
      00FF24F7H   LINE      CODE     ---       #61
      00FF24FFH   LINE      CODE     ---       #62
      ---         BLOCKEND  ---      ---       LVL=0

      00FF226CH   BLOCK     CODE     ---       LVL=0
      00FF226CH   LINE      CODE     ---       #215
      00FF226CH   LINE      CODE     ---       #217
      00FF226FH   LINE      CODE     ---       #218
      00FF2277H   LINE      CODE     ---       #219
      00FF227AH   LINE      CODE     ---       #220
      00FF227DH   LINE      CODE     ---       #223
      00FF2285H   LINE      CODE     ---       #225
      00FF2295H   LINE      CODE     ---       #226
      00FF22A3H   LINE      CODE     ---       #227
      ---         BLOCKEND  ---      ---       LVL=0

      00FF25CCH   BLOCK     CODE     ---       LVL=0
      00FF25CCH   LINE      CODE     ---       #232
      00FF25CCH   LINE      CODE     ---       #235
      00FF25CFH   LINE      CODE     ---       #242
      00FF25D2H   LINE      CODE     ---       #243
      00FF25D4H   LINE      CODE     ---       #245
      ---         BLOCKEND  ---      ---       LVL=0

      ---         MODULE    ---      ---       Task
      00FF222FH   PUBLIC    CODE     ---       Task_Marks_Handler_Callback
      00000551H   PUBLIC    EDATA    BYTE      Tasks_Max
      000000D0H   SFRSYM    DATA     BYTE      PSW
      0000009DH   SFRSYM    DATA     BYTE      IRCBAND
      00000097H   SFRSYM    DATA     BYTE      AUXR2
      000000EFH   SFRSYM    DATA     BYTE      AUXINTIF
      000000FDH   SFRSYM    DATA     BYTE      S4CON
      000000ACH   SFRSYM    DATA     BYTE      S3CON
      0000009AH   SFRSYM    DATA     BYTE      S2CON
      000000B7H   SFRSYM    DATA     BYTE      IPH
      000000CDH   SFRSYM    DATA     BYTE      SPSTAT
      000000DDH   SFRSYM    DATA     BYTE      T4T3M
      000000C1H   SFRSYM    DATA     BYTE      WDT_CONTR
      000000DFH   SFRSYM    DATA     BYTE      IP3
      000000F4H   SFRSYM    DATA     BYTE      USBCON
      000000B5H   SFRSYM    DATA     BYTE      IP2
      000000FFH   SFRSYM    DATA     BYTE      RSTCFG
      000000C7H   SFRSYM    DATA     BYTE      IAP_CONTR
      000000F9H   SFRSYM    DATA     BYTE      LINICR
      0000008EH   SFRSYM    DATA     BYTE      AUXR
      000000AFH   SFRSYM    DATA     BYTE      IE2
L251 LINKER/LOCATER V4.66.93.0                                                        11/26/2024  21:46:51  PAGE 29


      00000088H   SFRSYM    DATA     BYTE      TCON
      00000089H   SFRSYM    DATA     BYTE      TMOD
      00000098H   SFRSYM    DATA     BYTE      SCON
      000000F1H   SFRSYM    DATA     BYTE      CANICR
      00000087H   SFRSYM    DATA     BYTE      PCON
      000000BCH   SFRSYM    DATA     BYTE      ADC_CONTR
      000000E7H   SFRSYM    DATA     BYTE      CMPCR2
      000000E6H   SFRSYM    DATA     BYTE      CMPCR1
      000000DEH   SFRSYM    DATA     BYTE      ADCCFG
      000000B8H   SFRSYM    DATA     BYTE      IP
      0000008FH   SFRSYM    DATA     BYTE      INTCLKO
      000000EEH   SFRSYM    DATA     BYTE      IP3H
      000000B6H   SFRSYM    DATA     BYTE      IP2H
      000000A8H   SFRSYM    DATA     BYTE      IE
      000000BBH   SFRSYM    DATA     BYTE      P_SW3
      000000BAH   SFRSYM    DATA     BYTE      P_SW2
      000000A2H   SFRSYM    DATA     BYTE      P_SW1
      000000CEH   SFRSYM    DATA     BYTE      SPCTL
      000000F8H   SFRSYM    DATA     BYTE      P7
      000000E8H   SFRSYM    DATA     BYTE      P6
      000000C8H   SFRSYM    DATA     BYTE      P5
      000000C0H   SFRSYM    DATA     BYTE      P4
      000000B0H   SFRSYM    DATA     BYTE      P3
      000000A0H   SFRSYM    DATA     BYTE      P2
      00000090H   SFRSYM    DATA     BYTE      P1
      00000080H   SFRSYM    DATA     BYTE      P0
      00000552H   SYMBOL    EDATA    ---       Task_Comps

      00FF222FH   BLOCK     CODE     ---       LVL=0
      R7          REGSYM    ---      BYTE      i
      00FF222FH   LINE      CODE     ---       #57
      00FF222FH   LINE      CODE     ---       #58
      00FF222FH   LINE      CODE     ---       #60
      00FF2233H   LINE      CODE     ---       #62
      00FF2240H   LINE      CODE     ---       #64
      00FF224BH   LINE      CODE     ---       #65
      00FF2253H   LINE      CODE     ---       #68
      00FF225BH   LINE      CODE     ---       #69
      00FF2261H   LINE      CODE     ---       #70
      00FF2261H   LINE      CODE     ---       #72
      00FF226BH   LINE      CODE     ---       #73
      ---         BLOCKEND  ---      ---       LVL=0
      R15         REGSYM    ---      BYTE      i

      ---         MODULE    ---      ---       APP
      00FF2632H   PUBLIC    CODE     ---       APP_config
      00000008H   PUBLIC    EDATA    BYTE      second
      00000009H   PUBLIC    EDATA    BYTE      Key1_cnt
      0000000AH   PUBLIC    EDATA    BYTE      Key2_cnt
      0000000BH   PUBLIC    EDATA    BYTE      cnt50ms
      0000000CH   PUBLIC    EDATA    ---       LED8
      00000014H   PUBLIC    EDATA    BYTE      minute
      00000015H   PUBLIC    EDATA    BYTE      KeyCode
      00000016H   PUBLIC    EDATA    BYTE      IO_KeyState
      00000017H   PUBLIC    EDATA    BYTE      hour
      00000018H   PUBLIC    EDATA    BYTE      IO_KeyHoldCnt
      00000019H   PUBLIC    EDATA    BYTE      IO_KeyState1
      0000001AH   PUBLIC    EDATA    BYTE      KeyHoldCnt
      0000001BH   PUBLIC    EDATA    WORD      msecond
      0000001DH   PUBLIC    EDATA    BYTE      display_index
      00FF21A9H   PUBLIC    CODE     ---       T_COM
      00FF21B1H   PUBLIC    CODE     ---       T_KeyTable
      00FF21C1H   PUBLIC    CODE     ---       t_display
      00000023H.7 PUBLIC    BIT      BIT       Key1_Flag
      00000024H.0 PUBLIC    BIT      BIT       Key2_Flag
L251 LINKER/LOCATER V4.66.93.0                                                        11/26/2024  21:46:51  PAGE 30


      000000D0H   SFRSYM    DATA     BYTE      PSW
      0000009DH   SFRSYM    DATA     BYTE      IRCBAND
      00000097H   SFRSYM    DATA     BYTE      AUXR2
      000000EFH   SFRSYM    DATA     BYTE      AUXINTIF
      000000FDH   SFRSYM    DATA     BYTE      S4CON
      000000ACH   SFRSYM    DATA     BYTE      S3CON
      0000009AH   SFRSYM    DATA     BYTE      S2CON
      000000B7H   SFRSYM    DATA     BYTE      IPH
      000000CDH   SFRSYM    DATA     BYTE      SPSTAT
      000000DDH   SFRSYM    DATA     BYTE      T4T3M
      000000C1H   SFRSYM    DATA     BYTE      WDT_CONTR
      000000DFH   SFRSYM    DATA     BYTE      IP3
      000000F4H   SFRSYM    DATA     BYTE      USBCON
      000000B5H   SFRSYM    DATA     BYTE      IP2
      000000FFH   SFRSYM    DATA     BYTE      RSTCFG
      000000C7H   SFRSYM    DATA     BYTE      IAP_CONTR
      000000F9H   SFRSYM    DATA     BYTE      LINICR
      0000008EH   SFRSYM    DATA     BYTE      AUXR
      000000AFH   SFRSYM    DATA     BYTE      IE2
      00000088H   SFRSYM    DATA     BYTE      TCON
      00000089H   SFRSYM    DATA     BYTE      TMOD
      00000098H   SFRSYM    DATA     BYTE      SCON
      000000F1H   SFRSYM    DATA     BYTE      CANICR
      00000087H   SFRSYM    DATA     BYTE      PCON
      000000BCH   SFRSYM    DATA     BYTE      ADC_CONTR
      000000E7H   SFRSYM    DATA     BYTE      CMPCR2
      000000E6H   SFRSYM    DATA     BYTE      CMPCR1
      000000DEH   SFRSYM    DATA     BYTE      ADCCFG
      000000B8H   SFRSYM    DATA     BYTE      IP
      0000008FH   SFRSYM    DATA     BYTE      INTCLKO
      000000EEH   SFRSYM    DATA     BYTE      IP3H
      000000B6H   SFRSYM    DATA     BYTE      IP2H
      000000A8H   SFRSYM    DATA     BYTE      IE
      000000BBH   SFRSYM    DATA     BYTE      P_SW3
      000000BAH   SFRSYM    DATA     BYTE      P_SW2
      000000A2H   SFRSYM    DATA     BYTE      P_SW1
      000000CEH   SFRSYM    DATA     BYTE      SPCTL
      000000F8H   SFRSYM    DATA     BYTE      P7
      000000E8H   SFRSYM    DATA     BYTE      P6
      000000C8H   SFRSYM    DATA     BYTE      P5
      000000C0H   SFRSYM    DATA     BYTE      P4
      000000B0H   SFRSYM    DATA     BYTE      P3
      000000A0H   SFRSYM    DATA     BYTE      P2
      00000090H   SFRSYM    DATA     BYTE      P1
      00000080H   SFRSYM    DATA     BYTE      P0

      00FF2632H   BLOCK     CODE     ---       LVL=0
      00FF2632H   LINE      CODE     ---       #57
      00FF2632H   LINE      CODE     ---       #59
      00FF2635H   LINE      CODE     ---       #60
      ---         BLOCKEND  ---      ---       LVL=0

      ---         MODULE    ---      ---       APP_AD_UART
      00FF1D15H   PUBLIC    CODE     ---       ADtoUART_init
      00FF1F63H   PUBLIC    CODE     ---       Sample_ADtoUART
      000005AEH   PUBLIC    EDATA    BYTE      index
      00000094H   SFRSYM    DATA     BYTE      P0M0
      000000D0H   SFRSYM    DATA     BYTE      PSW
      0000009DH   SFRSYM    DATA     BYTE      IRCBAND
      00000097H   SFRSYM    DATA     BYTE      AUXR2
      000000EFH   SFRSYM    DATA     BYTE      AUXINTIF
      000000FDH   SFRSYM    DATA     BYTE      S4CON
      000000ACH   SFRSYM    DATA     BYTE      S3CON
      0000009AH   SFRSYM    DATA     BYTE      S2CON
      000000B7H   SFRSYM    DATA     BYTE      IPH
L251 LINKER/LOCATER V4.66.93.0                                                        11/26/2024  21:46:51  PAGE 31


      000000CDH   SFRSYM    DATA     BYTE      SPSTAT
      000000DDH   SFRSYM    DATA     BYTE      T4T3M
      000000C1H   SFRSYM    DATA     BYTE      WDT_CONTR
      000000DFH   SFRSYM    DATA     BYTE      IP3
      000000F4H   SFRSYM    DATA     BYTE      USBCON
      000000B5H   SFRSYM    DATA     BYTE      IP2
      000000FFH   SFRSYM    DATA     BYTE      RSTCFG
      000000C7H   SFRSYM    DATA     BYTE      IAP_CONTR
      000000F9H   SFRSYM    DATA     BYTE      LINICR
      0000008EH   SFRSYM    DATA     BYTE      AUXR
      000000AFH   SFRSYM    DATA     BYTE      IE2
      00000088H   SFRSYM    DATA     BYTE      TCON
      00000089H   SFRSYM    DATA     BYTE      TMOD
      00000098H   SFRSYM    DATA     BYTE      SCON
      000000F1H   SFRSYM    DATA     BYTE      CANICR
      00000087H   SFRSYM    DATA     BYTE      PCON
      000000BCH   SFRSYM    DATA     BYTE      ADC_CONTR
      000000E7H   SFRSYM    DATA     BYTE      CMPCR2
      000000E6H   SFRSYM    DATA     BYTE      CMPCR1
      000000DEH   SFRSYM    DATA     BYTE      ADCCFG
      000000B8H   SFRSYM    DATA     BYTE      IP
      0000008FH   SFRSYM    DATA     BYTE      INTCLKO
      000000EEH   SFRSYM    DATA     BYTE      IP3H
      000000B6H   SFRSYM    DATA     BYTE      IP2H
      000000A8H   SFRSYM    DATA     BYTE      IE
      000000BBH   SFRSYM    DATA     BYTE      P_SW3
      000000BAH   SFRSYM    DATA     BYTE      P_SW2
      000000A2H   SFRSYM    DATA     BYTE      P_SW1
      000000CEH   SFRSYM    DATA     BYTE      SPCTL
      000000F8H   SFRSYM    DATA     BYTE      P7
      000000E8H   SFRSYM    DATA     BYTE      P6
      000000C8H   SFRSYM    DATA     BYTE      P5
      000000C0H   SFRSYM    DATA     BYTE      P4
      000000C9H   SFRSYM    DATA     BYTE      P5M1
      000000B0H   SFRSYM    DATA     BYTE      P3
      000000CAH   SFRSYM    DATA     BYTE      P5M0
      000000A0H   SFRSYM    DATA     BYTE      P2
      00000090H   SFRSYM    DATA     BYTE      P1
      00000080H   SFRSYM    DATA     BYTE      P0
      00000091H   SFRSYM    DATA     BYTE      P1M1
      00000092H   SFRSYM    DATA     BYTE      P1M0
      00000093H   SFRSYM    DATA     BYTE      P0M1

      00FF1D15H   BLOCK     CODE     ---       LVL=0
      00000560H   SYMBOL    EDATA    ---       ADC_InitStructure
      00000565H   SYMBOL    EDATA    ---       COMx_InitStructure
      00FF1D15H   LINE      CODE     ---       #59
      00FF1D15H   LINE      CODE     ---       #60
      00FF1D15H   LINE      CODE     ---       #64
      00FF1D1BH   LINE      CODE     ---       #65
      00FF1D21H   LINE      CODE     ---       #66
      00FF1D27H   LINE      CODE     ---       #68
      00FF1D2DH   LINE      CODE     ---       #69
      00FF1D33H   LINE      CODE     ---       #70
      00FF1D3FH   LINE      CODE     ---       #71
      00FF1D45H   LINE      CODE     ---       #72
      00FF1D4CH   LINE      CODE     ---       #73
      00FF1D54H   LINE      CODE     ---       #75
      00FF1D5AH   LINE      CODE     ---       #76
      00FF1D5FH   LINE      CODE     ---       #77
      00FF1D65H   LINE      CODE     ---       #78
      00FF1D6BH   LINE      CODE     ---       #79
      00FF1D71H   LINE      CODE     ---       #80
      00FF1D78H   LINE      CODE     ---       #81
      00FF1D7DH   LINE      CODE     ---       #82
L251 LINKER/LOCATER V4.66.93.0                                                        11/26/2024  21:46:51  PAGE 32


      ---         BLOCKEND  ---      ---       LVL=0

      00FF1F63H   BLOCK     CODE     ---       LVL=0
      00FF1F65H   BLOCK     CODE     NEAR LAB  LVL=1
      WR6         REGSYM    ---      WORD      j
      ---         BLOCKEND  ---      ---       LVL=1
      00FF1F63H   LINE      CODE     ---       #92
      00FF1F65H   LINE      CODE     ---       #93
      00FF1F65H   LINE      CODE     ---       #96
      00FF1F6CH   LINE      CODE     ---       #97
      00FF1F85H   LINE      CODE     ---       #98
      00FF1F97H   LINE      CODE     ---       #100
      00FF1F9EH   LINE      CODE     ---       #101
      00FF1FA7H   LINE      CODE     ---       #103
      00FF1FACH   LINE      CODE     ---       #104
      ---         BLOCKEND  ---      ---       LVL=0

      ---         MODULE    ---      ---       APP_Lamp
      00FF00C6H   PUBLIC    CODE     ---       Lamp_init
      00FF2536H   PUBLIC    CODE     ---       Sample_Lamp
      000005AFH   PUBLIC    EDATA    BYTE      ledIndex
      00FF011BH   PUBLIC    CODE     ---       ledNum
      000000D0H   SFRSYM    DATA     BYTE      PSW
      0000009DH   SFRSYM    DATA     BYTE      IRCBAND
      00000097H   SFRSYM    DATA     BYTE      AUXR2
      000000EFH   SFRSYM    DATA     BYTE      AUXINTIF
      000000FDH   SFRSYM    DATA     BYTE      S4CON
      000000ACH   SFRSYM    DATA     BYTE      S3CON
      0000009AH   SFRSYM    DATA     BYTE      S2CON
      000000B7H   SFRSYM    DATA     BYTE      IPH
      000000CDH   SFRSYM    DATA     BYTE      SPSTAT
      000000DDH   SFRSYM    DATA     BYTE      T4T3M
      000000C1H   SFRSYM    DATA     BYTE      WDT_CONTR
      000000DFH   SFRSYM    DATA     BYTE      IP3
      000000F4H   SFRSYM    DATA     BYTE      USBCON
      000000B5H   SFRSYM    DATA     BYTE      IP2
      000000FFH   SFRSYM    DATA     BYTE      RSTCFG
      000000C7H   SFRSYM    DATA     BYTE      IAP_CONTR
      000000F9H   SFRSYM    DATA     BYTE      LINICR
      0000008EH   SFRSYM    DATA     BYTE      AUXR
      000000AFH   SFRSYM    DATA     BYTE      IE2
      00000088H   SFRSYM    DATA     BYTE      TCON
      00000089H   SFRSYM    DATA     BYTE      TMOD
      00000098H   SFRSYM    DATA     BYTE      SCON
      000000C0H.0 SFRSYM    DATA     BIT       P40
      000000F1H   SFRSYM    DATA     BYTE      CANICR
      00000087H   SFRSYM    DATA     BYTE      PCON
      000000BCH   SFRSYM    DATA     BYTE      ADC_CONTR
      000000E7H   SFRSYM    DATA     BYTE      CMPCR2
      000000E6H   SFRSYM    DATA     BYTE      CMPCR1
      000000DEH   SFRSYM    DATA     BYTE      ADCCFG
      000000B8H   SFRSYM    DATA     BYTE      IP
      0000008FH   SFRSYM    DATA     BYTE      INTCLKO
      000000EEH   SFRSYM    DATA     BYTE      IP3H
      000000B6H   SFRSYM    DATA     BYTE      IP2H
      000000A8H   SFRSYM    DATA     BYTE      IE
      000000BBH   SFRSYM    DATA     BYTE      P_SW3
      000000BAH   SFRSYM    DATA     BYTE      P_SW2
      000000A2H   SFRSYM    DATA     BYTE      P_SW1
      000000CEH   SFRSYM    DATA     BYTE      SPCTL
      000000F8H   SFRSYM    DATA     BYTE      P7
      000000E8H   SFRSYM    DATA     BYTE      P6
      000000C8H   SFRSYM    DATA     BYTE      P5
      000000CBH   SFRSYM    DATA     BYTE      P6M1
      000000C0H   SFRSYM    DATA     BYTE      P4
L251 LINKER/LOCATER V4.66.93.0                                                        11/26/2024  21:46:51  PAGE 33


      000000CCH   SFRSYM    DATA     BYTE      P6M0
      000000B0H   SFRSYM    DATA     BYTE      P3
      000000B3H   SFRSYM    DATA     BYTE      P4M1
      000000A0H   SFRSYM    DATA     BYTE      P2
      000000B4H   SFRSYM    DATA     BYTE      P4M0
      00000090H   SFRSYM    DATA     BYTE      P1
      00000080H   SFRSYM    DATA     BYTE      P0

      00FF00C6H   BLOCK     CODE     ---       LVL=0
      00FF00C6H   LINE      CODE     ---       #54
      00FF00C6H   LINE      CODE     ---       #56
      00FF00CCH   LINE      CODE     ---       #57
      00FF00D2H   LINE      CODE     ---       #58
      ---         BLOCKEND  ---      ---       LVL=0

      00FF2536H   BLOCK     CODE     ---       LVL=0
      00FF2536H   LINE      CODE     ---       #67
      00FF2536H   LINE      CODE     ---       #69
      00FF2538H   LINE      CODE     ---       #70
      00FF254EH   LINE      CODE     ---       #71
      00FF2555H   LINE      CODE     ---       #72
      00FF255EH   LINE      CODE     ---       #74
      00FF2563H   LINE      CODE     ---       #75
      ---         BLOCKEND  ---      ---       LVL=0

      ---         MODULE    ---      ---       APP_INT_UART
      000005B0H   PUBLIC    EDATA    BYTE      WakeUpCnt
      000000D0H   SFRSYM    DATA     BYTE      PSW
      0000009DH   SFRSYM    DATA     BYTE      IRCBAND
      00000097H   SFRSYM    DATA     BYTE      AUXR2
      000000EFH   SFRSYM    DATA     BYTE      AUXINTIF
      000000FDH   SFRSYM    DATA     BYTE      S4CON
      000000ACH   SFRSYM    DATA     BYTE      S3CON
      0000009AH   SFRSYM    DATA     BYTE      S2CON
      000000B7H   SFRSYM    DATA     BYTE      IPH
      000000CDH   SFRSYM    DATA     BYTE      SPSTAT
      000000DDH   SFRSYM    DATA     BYTE      T4T3M
      000000C1H   SFRSYM    DATA     BYTE      WDT_CONTR
      000000DFH   SFRSYM    DATA     BYTE      IP3
      000000F4H   SFRSYM    DATA     BYTE      USBCON
      000000B5H   SFRSYM    DATA     BYTE      IP2
      000000FFH   SFRSYM    DATA     BYTE      RSTCFG
      000000C7H   SFRSYM    DATA     BYTE      IAP_CONTR
      000000F9H   SFRSYM    DATA     BYTE      LINICR
      0000008EH   SFRSYM    DATA     BYTE      AUXR
      000000AFH   SFRSYM    DATA     BYTE      IE2
      00000088H   SFRSYM    DATA     BYTE      TCON
      00000089H   SFRSYM    DATA     BYTE      TMOD
      00000098H   SFRSYM    DATA     BYTE      SCON
      000000F1H   SFRSYM    DATA     BYTE      CANICR
      00000087H   SFRSYM    DATA     BYTE      PCON
      000000BCH   SFRSYM    DATA     BYTE      ADC_CONTR
      000000E7H   SFRSYM    DATA     BYTE      CMPCR2
      000000E6H   SFRSYM    DATA     BYTE      CMPCR1
      000000B0H.0 SFRSYM    DATA     BIT       INT4
      000000B0H.7 SFRSYM    DATA     BIT       INT3
      000000B0H.6 SFRSYM    DATA     BIT       INT2
      000000B0H.3 SFRSYM    DATA     BIT       INT1
      000000B0H.2 SFRSYM    DATA     BIT       INT0
      000000DEH   SFRSYM    DATA     BYTE      ADCCFG
      000000B8H   SFRSYM    DATA     BYTE      IP
      0000008FH   SFRSYM    DATA     BYTE      INTCLKO
      000000EEH   SFRSYM    DATA     BYTE      IP3H
      00000087H.1 SFRSYM    DATA     BIT       PD
      000000B6H   SFRSYM    DATA     BYTE      IP2H
L251 LINKER/LOCATER V4.66.93.0                                                        11/26/2024  21:46:51  PAGE 34


      000000A8H   SFRSYM    DATA     BYTE      IE
      000000BBH   SFRSYM    DATA     BYTE      P_SW3
      000000BAH   SFRSYM    DATA     BYTE      P_SW2
      000000A2H   SFRSYM    DATA     BYTE      P_SW1
      000000CEH   SFRSYM    DATA     BYTE      SPCTL
      000000F8H   SFRSYM    DATA     BYTE      P7
      000000E8H   SFRSYM    DATA     BYTE      P6
      000000C8H   SFRSYM    DATA     BYTE      P5
      000000C0H   SFRSYM    DATA     BYTE      P4
      000000B0H   SFRSYM    DATA     BYTE      P3
      000000B3H   SFRSYM    DATA     BYTE      P4M1
      000000A0H   SFRSYM    DATA     BYTE      P2
      000000B1H   SFRSYM    DATA     BYTE      P3M1
      000000B4H   SFRSYM    DATA     BYTE      P4M0
      00000090H   SFRSYM    DATA     BYTE      P1
      000000B2H   SFRSYM    DATA     BYTE      P3M0
      00000080H   SFRSYM    DATA     BYTE      P0

      ---         MODULE    ---      ---       APP_RTC
      00000094H   SFRSYM    DATA     BYTE      P0M0
      000000D0H   SFRSYM    DATA     BYTE      PSW
      0000009DH   SFRSYM    DATA     BYTE      IRCBAND
      000000D0H.5 SFRSYM    DATA     BIT       F0
      00000097H   SFRSYM    DATA     BYTE      AUXR2
      000000EFH   SFRSYM    DATA     BYTE      AUXINTIF
      000000FDH   SFRSYM    DATA     BYTE      S4CON
      000000ACH   SFRSYM    DATA     BYTE      S3CON
      0000009AH   SFRSYM    DATA     BYTE      S2CON
      000000B7H   SFRSYM    DATA     BYTE      IPH
      000000CDH   SFRSYM    DATA     BYTE      SPSTAT
      000000DDH   SFRSYM    DATA     BYTE      T4T3M
      000000C1H   SFRSYM    DATA     BYTE      WDT_CONTR
      000000DFH   SFRSYM    DATA     BYTE      IP3
      000000F4H   SFRSYM    DATA     BYTE      USBCON
      000000B5H   SFRSYM    DATA     BYTE      IP2
      000000FFH   SFRSYM    DATA     BYTE      RSTCFG
      000000C7H   SFRSYM    DATA     BYTE      IAP_CONTR
      000000F9H   SFRSYM    DATA     BYTE      LINICR
      0000008EH   SFRSYM    DATA     BYTE      AUXR
      000000AFH   SFRSYM    DATA     BYTE      IE2
      00000088H   SFRSYM    DATA     BYTE      TCON
      00000089H   SFRSYM    DATA     BYTE      TMOD
      00000098H   SFRSYM    DATA     BYTE      SCON
      000000F1H   SFRSYM    DATA     BYTE      CANICR
      00000087H   SFRSYM    DATA     BYTE      PCON
      000000BCH   SFRSYM    DATA     BYTE      ADC_CONTR
      000000E7H   SFRSYM    DATA     BYTE      CMPCR2
      000000E6H   SFRSYM    DATA     BYTE      CMPCR1
      000000DEH   SFRSYM    DATA     BYTE      ADCCFG
      000000B8H   SFRSYM    DATA     BYTE      IP
      0000008FH   SFRSYM    DATA     BYTE      INTCLKO
      000000EEH   SFRSYM    DATA     BYTE      IP3H
      000000B6H   SFRSYM    DATA     BYTE      IP2H
      000000A8H   SFRSYM    DATA     BYTE      IE
      000000BBH   SFRSYM    DATA     BYTE      P_SW3
      000000BAH   SFRSYM    DATA     BYTE      P_SW2
      000000A2H   SFRSYM    DATA     BYTE      P_SW1
      000000CEH   SFRSYM    DATA     BYTE      SPCTL
      000000F8H   SFRSYM    DATA     BYTE      P7
      000000E1H   SFRSYM    DATA     BYTE      P7M1
      000000E8H   SFRSYM    DATA     BYTE      P6
      000000C8H   SFRSYM    DATA     BYTE      P5
      000000CBH   SFRSYM    DATA     BYTE      P6M1
      000000E2H   SFRSYM    DATA     BYTE      P7M0
      000000C0H   SFRSYM    DATA     BYTE      P4
L251 LINKER/LOCATER V4.66.93.0                                                        11/26/2024  21:46:51  PAGE 35


      000000CCH   SFRSYM    DATA     BYTE      P6M0
      000000B0H   SFRSYM    DATA     BYTE      P3
      000000A0H   SFRSYM    DATA     BYTE      P2
      00000090H   SFRSYM    DATA     BYTE      P1
      00000080H   SFRSYM    DATA     BYTE      P0
      00000093H   SFRSYM    DATA     BYTE      P0M1
      R10         REGSYM    ---      BYTE      i
      R10         REGSYM    ---      BYTE      i
      R15         REGSYM    ---      BYTE      j

      ---         MODULE    ---      ---       APP_I2C_PS
      000005A7H   PUBLIC    EDATA    ---       temp
      00000094H   SFRSYM    DATA     BYTE      P0M0
      000000D0H   SFRSYM    DATA     BYTE      PSW
      0000009DH   SFRSYM    DATA     BYTE      IRCBAND
      00000097H   SFRSYM    DATA     BYTE      AUXR2
      000000EFH   SFRSYM    DATA     BYTE      AUXINTIF
      000000FDH   SFRSYM    DATA     BYTE      S4CON
      000000ACH   SFRSYM    DATA     BYTE      S3CON
      0000009AH   SFRSYM    DATA     BYTE      S2CON
      000000B7H   SFRSYM    DATA     BYTE      IPH
      000000CDH   SFRSYM    DATA     BYTE      SPSTAT
      000000DDH   SFRSYM    DATA     BYTE      T4T3M
      000000C1H   SFRSYM    DATA     BYTE      WDT_CONTR
      000000DFH   SFRSYM    DATA     BYTE      IP3
      000000F4H   SFRSYM    DATA     BYTE      USBCON
      000000B5H   SFRSYM    DATA     BYTE      IP2
      000000FFH   SFRSYM    DATA     BYTE      RSTCFG
      000000C7H   SFRSYM    DATA     BYTE      IAP_CONTR
      000000F9H   SFRSYM    DATA     BYTE      LINICR
      0000008EH   SFRSYM    DATA     BYTE      AUXR
      000000AFH   SFRSYM    DATA     BYTE      IE2
      00000088H   SFRSYM    DATA     BYTE      TCON
      00000089H   SFRSYM    DATA     BYTE      TMOD
      00000098H   SFRSYM    DATA     BYTE      SCON
      000000F1H   SFRSYM    DATA     BYTE      CANICR
      00000087H   SFRSYM    DATA     BYTE      PCON
      000000BCH   SFRSYM    DATA     BYTE      ADC_CONTR
      000000E7H   SFRSYM    DATA     BYTE      CMPCR2
      000000E6H   SFRSYM    DATA     BYTE      CMPCR1
      000000DEH   SFRSYM    DATA     BYTE      ADCCFG
      000000B8H   SFRSYM    DATA     BYTE      IP
      0000008FH   SFRSYM    DATA     BYTE      INTCLKO
      000000EEH   SFRSYM    DATA     BYTE      IP3H
      000000B6H   SFRSYM    DATA     BYTE      IP2H
      000000A8H   SFRSYM    DATA     BYTE      IE
      000000BBH   SFRSYM    DATA     BYTE      P_SW3
      000000BAH   SFRSYM    DATA     BYTE      P_SW2
      000000A2H   SFRSYM    DATA     BYTE      P_SW1
      000000CEH   SFRSYM    DATA     BYTE      SPCTL
      000000F8H   SFRSYM    DATA     BYTE      P7
      000000E1H   SFRSYM    DATA     BYTE      P7M1
      000000E8H   SFRSYM    DATA     BYTE      P6
      000000C8H   SFRSYM    DATA     BYTE      P5
      000000CBH   SFRSYM    DATA     BYTE      P6M1
      000000E2H   SFRSYM    DATA     BYTE      P7M0
      000000C0H   SFRSYM    DATA     BYTE      P4
      000000CCH   SFRSYM    DATA     BYTE      P6M0
      000000B0H   SFRSYM    DATA     BYTE      P3
      000000A0H   SFRSYM    DATA     BYTE      P2
      000000B1H   SFRSYM    DATA     BYTE      P3M1
      00000090H   SFRSYM    DATA     BYTE      P1
      000000B2H   SFRSYM    DATA     BYTE      P3M0
      00000080H   SFRSYM    DATA     BYTE      P0
      00000093H   SFRSYM    DATA     BYTE      P0M1
L251 LINKER/LOCATER V4.66.93.0                                                        11/26/2024  21:46:51  PAGE 36


      R10         REGSYM    ---      BYTE      i

      ---         MODULE    ---      ---       APP_SPI_PS
      00000024H.5 PUBLIC    BIT      BIT       UartReceived
      000000D0H   SFRSYM    DATA     BYTE      PSW
      0000009DH   SFRSYM    DATA     BYTE      IRCBAND
      00000097H   SFRSYM    DATA     BYTE      AUXR2
      000000EFH   SFRSYM    DATA     BYTE      AUXINTIF
      000000FDH   SFRSYM    DATA     BYTE      S4CON
      000000ACH   SFRSYM    DATA     BYTE      S3CON
      0000009AH   SFRSYM    DATA     BYTE      S2CON
      000000B7H   SFRSYM    DATA     BYTE      IPH
      000000CDH   SFRSYM    DATA     BYTE      SPSTAT
      000000DDH   SFRSYM    DATA     BYTE      T4T3M
      000000C1H   SFRSYM    DATA     BYTE      WDT_CONTR
      000000DFH   SFRSYM    DATA     BYTE      IP3
      000000F4H   SFRSYM    DATA     BYTE      USBCON
      000000B5H   SFRSYM    DATA     BYTE      IP2
      000000FFH   SFRSYM    DATA     BYTE      RSTCFG
      000000C7H   SFRSYM    DATA     BYTE      IAP_CONTR
      000000F9H   SFRSYM    DATA     BYTE      LINICR
      0000008EH   SFRSYM    DATA     BYTE      AUXR
      000000AFH   SFRSYM    DATA     BYTE      IE2
      00000088H   SFRSYM    DATA     BYTE      TCON
      00000089H   SFRSYM    DATA     BYTE      TMOD
      00000098H   SFRSYM    DATA     BYTE      SCON
      000000F1H   SFRSYM    DATA     BYTE      CANICR
      00000087H   SFRSYM    DATA     BYTE      PCON
      000000BCH   SFRSYM    DATA     BYTE      ADC_CONTR
      000000E7H   SFRSYM    DATA     BYTE      CMPCR2
      000000E6H   SFRSYM    DATA     BYTE      CMPCR1
      000000DEH   SFRSYM    DATA     BYTE      ADCCFG
      000000B8H   SFRSYM    DATA     BYTE      IP
      0000008FH   SFRSYM    DATA     BYTE      INTCLKO
      000000EEH   SFRSYM    DATA     BYTE      IP3H
      000000B6H   SFRSYM    DATA     BYTE      IP2H
      000000A8H   SFRSYM    DATA     BYTE      IE
      000000BBH   SFRSYM    DATA     BYTE      P_SW3
      000000BAH   SFRSYM    DATA     BYTE      P_SW2
      000000A2H   SFRSYM    DATA     BYTE      P_SW1
      000000CEH   SFRSYM    DATA     BYTE      SPCTL
      000000F8H   SFRSYM    DATA     BYTE      P7
      000000E8H   SFRSYM    DATA     BYTE      P6
      000000A0H.2 SFRSYM    DATA     BIT       SPI_SS_2
      000000C8H   SFRSYM    DATA     BYTE      P5
      000000C0H   SFRSYM    DATA     BYTE      P4
      000000B0H   SFRSYM    DATA     BYTE      P3
      000000B3H   SFRSYM    DATA     BYTE      P4M1
      000000A0H   SFRSYM    DATA     BYTE      P2
      000000B4H   SFRSYM    DATA     BYTE      P4M0
      00000090H   SFRSYM    DATA     BYTE      P1
      00000095H   SFRSYM    DATA     BYTE      P2M1
      00000080H   SFRSYM    DATA     BYTE      P0
      00000096H   SFRSYM    DATA     BYTE      P2M0
      R15         REGSYM    ---      BYTE      i

      ---         MODULE    ---      ---       APP_WDT
      000000D0H   SFRSYM    DATA     BYTE      PSW
      0000009DH   SFRSYM    DATA     BYTE      IRCBAND
      00000097H   SFRSYM    DATA     BYTE      AUXR2
      000000EFH   SFRSYM    DATA     BYTE      AUXINTIF
      000000FDH   SFRSYM    DATA     BYTE      S4CON
      000000ACH   SFRSYM    DATA     BYTE      S3CON
      0000009AH   SFRSYM    DATA     BYTE      S2CON
      000000B7H   SFRSYM    DATA     BYTE      IPH
L251 LINKER/LOCATER V4.66.93.0                                                        11/26/2024  21:46:51  PAGE 37


      000000CDH   SFRSYM    DATA     BYTE      SPSTAT
      000000DDH   SFRSYM    DATA     BYTE      T4T3M
      000000C1H   SFRSYM    DATA     BYTE      WDT_CONTR
      000000DFH   SFRSYM    DATA     BYTE      IP3
      000000F4H   SFRSYM    DATA     BYTE      USBCON
      000000B5H   SFRSYM    DATA     BYTE      IP2
      000000FFH   SFRSYM    DATA     BYTE      RSTCFG
      000000C7H   SFRSYM    DATA     BYTE      IAP_CONTR
      000000F9H   SFRSYM    DATA     BYTE      LINICR
      0000008EH   SFRSYM    DATA     BYTE      AUXR
      000000AFH   SFRSYM    DATA     BYTE      IE2
      000000C0H.6 SFRSYM    DATA     BIT       P46
      00000088H   SFRSYM    DATA     BYTE      TCON
      00000089H   SFRSYM    DATA     BYTE      TMOD
      00000098H   SFRSYM    DATA     BYTE      SCON
      000000F1H   SFRSYM    DATA     BYTE      CANICR
      00000087H   SFRSYM    DATA     BYTE      PCON
      000000BCH   SFRSYM    DATA     BYTE      ADC_CONTR
      000000E7H   SFRSYM    DATA     BYTE      CMPCR2
      000000E6H   SFRSYM    DATA     BYTE      CMPCR1
      000000DEH   SFRSYM    DATA     BYTE      ADCCFG
      000000B8H   SFRSYM    DATA     BYTE      IP
      0000008FH   SFRSYM    DATA     BYTE      INTCLKO
      000000EEH   SFRSYM    DATA     BYTE      IP3H
      000000B6H   SFRSYM    DATA     BYTE      IP2H
      000000A8H   SFRSYM    DATA     BYTE      IE
      000000BBH   SFRSYM    DATA     BYTE      P_SW3
      000000BAH   SFRSYM    DATA     BYTE      P_SW2
      000000A2H   SFRSYM    DATA     BYTE      P_SW1
      000000CEH   SFRSYM    DATA     BYTE      SPCTL
      000000F8H   SFRSYM    DATA     BYTE      P7
      000000E8H   SFRSYM    DATA     BYTE      P6
      000000C8H   SFRSYM    DATA     BYTE      P5
      000000C0H   SFRSYM    DATA     BYTE      P4
      000000B0H   SFRSYM    DATA     BYTE      P3
      000000B3H   SFRSYM    DATA     BYTE      P4M1
      000000A0H   SFRSYM    DATA     BYTE      P2
      000000B4H   SFRSYM    DATA     BYTE      P4M0
      00000090H   SFRSYM    DATA     BYTE      P1
      00000080H   SFRSYM    DATA     BYTE      P0

      ---         MODULE    ---      ---       APP_EEPROM
      000004A5H   PUBLIC    EDATA    ---       tmp
      000000D0H   SFRSYM    DATA     BYTE      PSW
      0000009DH   SFRSYM    DATA     BYTE      IRCBAND
      00000097H   SFRSYM    DATA     BYTE      AUXR2
      000000EFH   SFRSYM    DATA     BYTE      AUXINTIF
      000000FDH   SFRSYM    DATA     BYTE      S4CON
      000000ACH   SFRSYM    DATA     BYTE      S3CON
      0000009AH   SFRSYM    DATA     BYTE      S2CON
      000000B7H   SFRSYM    DATA     BYTE      IPH
      000000CDH   SFRSYM    DATA     BYTE      SPSTAT
      000000DDH   SFRSYM    DATA     BYTE      T4T3M
      000000C1H   SFRSYM    DATA     BYTE      WDT_CONTR
      000000DFH   SFRSYM    DATA     BYTE      IP3
      000000F4H   SFRSYM    DATA     BYTE      USBCON
      000000B5H   SFRSYM    DATA     BYTE      IP2
      000000FFH   SFRSYM    DATA     BYTE      RSTCFG
      000000C7H   SFRSYM    DATA     BYTE      IAP_CONTR
      000000F9H   SFRSYM    DATA     BYTE      LINICR
      0000008EH   SFRSYM    DATA     BYTE      AUXR
      000000AFH   SFRSYM    DATA     BYTE      IE2
      00000088H   SFRSYM    DATA     BYTE      TCON
      00000089H   SFRSYM    DATA     BYTE      TMOD
      00000098H   SFRSYM    DATA     BYTE      SCON
L251 LINKER/LOCATER V4.66.93.0                                                        11/26/2024  21:46:51  PAGE 38


      000000F1H   SFRSYM    DATA     BYTE      CANICR
      00000087H   SFRSYM    DATA     BYTE      PCON
      000000BCH   SFRSYM    DATA     BYTE      ADC_CONTR
      000000E7H   SFRSYM    DATA     BYTE      CMPCR2
      000000E6H   SFRSYM    DATA     BYTE      CMPCR1
      000000DEH   SFRSYM    DATA     BYTE      ADCCFG
      000000B8H   SFRSYM    DATA     BYTE      IP
      0000008FH   SFRSYM    DATA     BYTE      INTCLKO
      000000EEH   SFRSYM    DATA     BYTE      IP3H
      000000B6H   SFRSYM    DATA     BYTE      IP2H
      000000A8H   SFRSYM    DATA     BYTE      IE
      000000BBH   SFRSYM    DATA     BYTE      P_SW3
      000000BAH   SFRSYM    DATA     BYTE      P_SW2
      000000A2H   SFRSYM    DATA     BYTE      P_SW1
      000000CEH   SFRSYM    DATA     BYTE      SPCTL
      000000F8H   SFRSYM    DATA     BYTE      P7
      000000E8H   SFRSYM    DATA     BYTE      P6
      000000C8H   SFRSYM    DATA     BYTE      P5
      000000C0H   SFRSYM    DATA     BYTE      P4
      000000B0H   SFRSYM    DATA     BYTE      P3
      000000B3H   SFRSYM    DATA     BYTE      P4M1
      000000A0H   SFRSYM    DATA     BYTE      P2
      000000B4H   SFRSYM    DATA     BYTE      P4M0
      00000090H   SFRSYM    DATA     BYTE      P1
      00000080H   SFRSYM    DATA     BYTE      P0
      R7          REGSYM    ---      BYTE      dat
      DR12        REGSYM    ---      DWORD     address
      R14         REGSYM    ---      BYTE      i
      R15         REGSYM    ---      BYTE      length
      R14         REGSYM    ---      BYTE      i
      R15         REGSYM    ---      BYTE      j
      R13         REGSYM    ---      BYTE      status

      ---         MODULE    ---      ---       APP_DMA_AD
      00011910H   PUBLIC    XDATA    ---       DmaAdBuffer
      000005B1H   PUBLIC    EDATA    BYTE      chn
      00000094H   SFRSYM    DATA     BYTE      P0M0
      000000D0H   SFRSYM    DATA     BYTE      PSW
      0000009DH   SFRSYM    DATA     BYTE      IRCBAND
      00000097H   SFRSYM    DATA     BYTE      AUXR2
      000000EFH   SFRSYM    DATA     BYTE      AUXINTIF
      000000FDH   SFRSYM    DATA     BYTE      S4CON
      000000ACH   SFRSYM    DATA     BYTE      S3CON
      0000009AH   SFRSYM    DATA     BYTE      S2CON
      000000B7H   SFRSYM    DATA     BYTE      IPH
      000000CDH   SFRSYM    DATA     BYTE      SPSTAT
      000000DDH   SFRSYM    DATA     BYTE      T4T3M
      000000C1H   SFRSYM    DATA     BYTE      WDT_CONTR
      000000DFH   SFRSYM    DATA     BYTE      IP3
      000000F4H   SFRSYM    DATA     BYTE      USBCON
      000000B5H   SFRSYM    DATA     BYTE      IP2
      000000FFH   SFRSYM    DATA     BYTE      RSTCFG
      000000C7H   SFRSYM    DATA     BYTE      IAP_CONTR
      000000F9H   SFRSYM    DATA     BYTE      LINICR
      0000008EH   SFRSYM    DATA     BYTE      AUXR
      000000AFH   SFRSYM    DATA     BYTE      IE2
      00000088H   SFRSYM    DATA     BYTE      TCON
      00000089H   SFRSYM    DATA     BYTE      TMOD
      00000098H   SFRSYM    DATA     BYTE      SCON
      000000F1H   SFRSYM    DATA     BYTE      CANICR
      00000087H   SFRSYM    DATA     BYTE      PCON
      000000BCH   SFRSYM    DATA     BYTE      ADC_CONTR
      000000E7H   SFRSYM    DATA     BYTE      CMPCR2
      000000E6H   SFRSYM    DATA     BYTE      CMPCR1
      000000DEH   SFRSYM    DATA     BYTE      ADCCFG
L251 LINKER/LOCATER V4.66.93.0                                                        11/26/2024  21:46:51  PAGE 39


      000000B8H   SFRSYM    DATA     BYTE      IP
      0000008FH   SFRSYM    DATA     BYTE      INTCLKO
      000000EEH   SFRSYM    DATA     BYTE      IP3H
      000000B6H   SFRSYM    DATA     BYTE      IP2H
      000000A8H   SFRSYM    DATA     BYTE      IE
      000000BBH   SFRSYM    DATA     BYTE      P_SW3
      000000BAH   SFRSYM    DATA     BYTE      P_SW2
      000000A2H   SFRSYM    DATA     BYTE      P_SW1
      000000CEH   SFRSYM    DATA     BYTE      SPCTL
      000000F8H   SFRSYM    DATA     BYTE      P7
      000000E8H   SFRSYM    DATA     BYTE      P6
      000000C8H   SFRSYM    DATA     BYTE      P5
      000000C0H   SFRSYM    DATA     BYTE      P4
      000000B0H   SFRSYM    DATA     BYTE      P3
      000000B3H   SFRSYM    DATA     BYTE      P4M1
      000000A0H   SFRSYM    DATA     BYTE      P2
      000000B4H   SFRSYM    DATA     BYTE      P4M0
      00000090H   SFRSYM    DATA     BYTE      P1
      00000080H   SFRSYM    DATA     BYTE      P0
      00000091H   SFRSYM    DATA     BYTE      P1M1
      00000092H   SFRSYM    DATA     BYTE      P1M0
      00000093H   SFRSYM    DATA     BYTE      P0M1
      R15         REGSYM    ---      BYTE      i
      R14         REGSYM    ---      BYTE      n

      ---         MODULE    ---      ---       APP_DMA_LCM
      00010000H   PUBLIC    XDATA    ---       Color
      00011000H   PUBLIC    XDATA    ---       Buffer
      00FF01EEH   PUBLIC    CODE     ---       asc2_1206
      00FF0662H   PUBLIC    CODE     ---       asc2_1608
      0000056EH   PUBLIC    EDATA    WORD      POINT_COLOR
      00000570H   PUBLIC    EDATA    ---       lcddev
      000000D0H   SFRSYM    DATA     BYTE      PSW
      0000009DH   SFRSYM    DATA     BYTE      IRCBAND
      00000097H   SFRSYM    DATA     BYTE      AUXR2
      000000EFH   SFRSYM    DATA     BYTE      AUXINTIF
      000000FDH   SFRSYM    DATA     BYTE      S4CON
      000000ACH   SFRSYM    DATA     BYTE      S3CON
      0000009AH   SFRSYM    DATA     BYTE      S2CON
      000000B7H   SFRSYM    DATA     BYTE      IPH
      000000CDH   SFRSYM    DATA     BYTE      SPSTAT
      000000DDH   SFRSYM    DATA     BYTE      T4T3M
      000000C1H   SFRSYM    DATA     BYTE      WDT_CONTR
      000000DFH   SFRSYM    DATA     BYTE      IP3
      000000F4H   SFRSYM    DATA     BYTE      USBCON
      000000B5H   SFRSYM    DATA     BYTE      IP2
      000000FFH   SFRSYM    DATA     BYTE      RSTCFG
      000000B0H.4 SFRSYM    DATA     BIT       LCD_CS
      000000C7H   SFRSYM    DATA     BYTE      IAP_CONTR
      000000F9H   SFRSYM    DATA     BYTE      LINICR
      0000008EH   SFRSYM    DATA     BYTE      AUXR
      000000AFH   SFRSYM    DATA     BYTE      IE2
      000000C0H.3 SFRSYM    DATA     BIT       LCD_RESET
      00000088H   SFRSYM    DATA     BYTE      TCON
      00000089H   SFRSYM    DATA     BYTE      TMOD
      00000098H   SFRSYM    DATA     BYTE      SCON
      000000F1H   SFRSYM    DATA     BYTE      CANICR
      00000087H   SFRSYM    DATA     BYTE      PCON
      000000BCH   SFRSYM    DATA     BYTE      ADC_CONTR
      000000E7H   SFRSYM    DATA     BYTE      CMPCR2
      000000E6H   SFRSYM    DATA     BYTE      CMPCR1
      000000DEH   SFRSYM    DATA     BYTE      ADCCFG
      000000B8H   SFRSYM    DATA     BYTE      IP
      0000008FH   SFRSYM    DATA     BYTE      INTCLKO
      000000EEH   SFRSYM    DATA     BYTE      IP3H
L251 LINKER/LOCATER V4.66.93.0                                                        11/26/2024  21:46:51  PAGE 40


      000000B6H   SFRSYM    DATA     BYTE      IP2H
      000000A8H   SFRSYM    DATA     BYTE      IE
      000000BBH   SFRSYM    DATA     BYTE      P_SW3
      000000BAH   SFRSYM    DATA     BYTE      P_SW2
      000000A2H   SFRSYM    DATA     BYTE      P_SW1
      000000CEH   SFRSYM    DATA     BYTE      SPCTL
      000000F8H   SFRSYM    DATA     BYTE      P7
      000000E8H   SFRSYM    DATA     BYTE      P6
      000000C8H   SFRSYM    DATA     BYTE      P5
      000000CBH   SFRSYM    DATA     BYTE      P6M1
      000000C0H   SFRSYM    DATA     BYTE      P4
      000000CCH   SFRSYM    DATA     BYTE      P6M0
      000000B0H   SFRSYM    DATA     BYTE      P3
      000000B3H   SFRSYM    DATA     BYTE      P4M1
      000000A0H   SFRSYM    DATA     BYTE      P2
      000000B1H   SFRSYM    DATA     BYTE      P3M1
      000000B4H   SFRSYM    DATA     BYTE      P4M0
      00000090H   SFRSYM    DATA     BYTE      P1
      000000B2H   SFRSYM    DATA     BYTE      P3M0
      00000080H   SFRSYM    DATA     BYTE      P0
      WR6         REGSYM    ---      WORD      sx
      WR4         REGSYM    ---      WORD      sy
      WR2         REGSYM    ---      WORD      ex
      WR0         REGSYM    ---      WORD      ey
      WR6         REGSYM    ---      WORD      i
      R11         REGSYM    ---      BYTE      Reg
      R11         REGSYM    ---      BYTE      Data
      WR14        REGSYM    ---      WORD      Data
      R7          REGSYM    ---      BYTE      LCD_Reg
      R15         REGSYM    ---      BYTE      LCD_RegValue
      WR2         REGSYM    ---      WORD      x
      WR0         REGSYM    ---      WORD      y
      R10         REGSYM    ---      BYTE      direction
      WR12        REGSYM    ---      WORD      xEnd
      WR14        REGSYM    ---      WORD      yEnd
      WR12        REGSYM    ---      WORD      x
      WR14        REGSYM    ---      WORD      y
      WR14        REGSYM    ---      WORD      x
      WR12        REGSYM    ---      WORD      y

      ---         MODULE    ---      ---       APP_DMA_M2M
      00011410H   PUBLIC    XDATA    ---       DmaRxBuffer
      00011510H   PUBLIC    XDATA    ---       DmaTxBuffer
      000000D0H   SFRSYM    DATA     BYTE      PSW
      0000009DH   SFRSYM    DATA     BYTE      IRCBAND
      00000097H   SFRSYM    DATA     BYTE      AUXR2
      000000EFH   SFRSYM    DATA     BYTE      AUXINTIF
      000000FDH   SFRSYM    DATA     BYTE      S4CON
      000000ACH   SFRSYM    DATA     BYTE      S3CON
      0000009AH   SFRSYM    DATA     BYTE      S2CON
      000000B7H   SFRSYM    DATA     BYTE      IPH
      000000CDH   SFRSYM    DATA     BYTE      SPSTAT
      000000DDH   SFRSYM    DATA     BYTE      T4T3M
      000000C1H   SFRSYM    DATA     BYTE      WDT_CONTR
      000000DFH   SFRSYM    DATA     BYTE      IP3
      000000F4H   SFRSYM    DATA     BYTE      USBCON
      000000B5H   SFRSYM    DATA     BYTE      IP2
      000000FFH   SFRSYM    DATA     BYTE      RSTCFG
      000000C7H   SFRSYM    DATA     BYTE      IAP_CONTR
      000000F9H   SFRSYM    DATA     BYTE      LINICR
      0000008EH   SFRSYM    DATA     BYTE      AUXR
      000000AFH   SFRSYM    DATA     BYTE      IE2
      00000088H   SFRSYM    DATA     BYTE      TCON
      00000089H   SFRSYM    DATA     BYTE      TMOD
      00000098H   SFRSYM    DATA     BYTE      SCON
L251 LINKER/LOCATER V4.66.93.0                                                        11/26/2024  21:46:51  PAGE 41


      000000F1H   SFRSYM    DATA     BYTE      CANICR
      00000087H   SFRSYM    DATA     BYTE      PCON
      000000BCH   SFRSYM    DATA     BYTE      ADC_CONTR
      000000E7H   SFRSYM    DATA     BYTE      CMPCR2
      000000E6H   SFRSYM    DATA     BYTE      CMPCR1
      000000DEH   SFRSYM    DATA     BYTE      ADCCFG
      000000B8H   SFRSYM    DATA     BYTE      IP
      0000008FH   SFRSYM    DATA     BYTE      INTCLKO
      000000EEH   SFRSYM    DATA     BYTE      IP3H
      000000B6H   SFRSYM    DATA     BYTE      IP2H
      000000A8H   SFRSYM    DATA     BYTE      IE
      000000BBH   SFRSYM    DATA     BYTE      P_SW3
      000000BAH   SFRSYM    DATA     BYTE      P_SW2
      000000A2H   SFRSYM    DATA     BYTE      P_SW1
      000000CEH   SFRSYM    DATA     BYTE      SPCTL
      000000F8H   SFRSYM    DATA     BYTE      P7
      000000E8H   SFRSYM    DATA     BYTE      P6
      000000C8H   SFRSYM    DATA     BYTE      P5
      000000C0H   SFRSYM    DATA     BYTE      P4
      000000B0H   SFRSYM    DATA     BYTE      P3
      000000B3H   SFRSYM    DATA     BYTE      P4M1
      000000A0H   SFRSYM    DATA     BYTE      P2
      000000B4H   SFRSYM    DATA     BYTE      P4M0
      00000090H   SFRSYM    DATA     BYTE      P1
      00000080H   SFRSYM    DATA     BYTE      P0
      WR6         REGSYM    ---      WORD      i
      WR14        REGSYM    ---      WORD      i

      ---         MODULE    ---      ---       APP_DMA_SPI_PS
      00011010H   PUBLIC    XDATA    ---       UartRxBuffer
      00011110H   PUBLIC    XDATA    ---       UartTxBuffer
      00011210H   PUBLIC    XDATA    ---       SpiRxBuffer
      00011310H   PUBLIC    XDATA    ---       SpiTxBuffer
      000000D0H   SFRSYM    DATA     BYTE      PSW
      0000009DH   SFRSYM    DATA     BYTE      IRCBAND
      00000097H   SFRSYM    DATA     BYTE      AUXR2
      000000EFH   SFRSYM    DATA     BYTE      AUXINTIF
      000000FDH   SFRSYM    DATA     BYTE      S4CON
      000000ACH   SFRSYM    DATA     BYTE      S3CON
      0000009AH   SFRSYM    DATA     BYTE      S2CON
      000000B7H   SFRSYM    DATA     BYTE      IPH
      000000CDH   SFRSYM    DATA     BYTE      SPSTAT
      000000DDH   SFRSYM    DATA     BYTE      T4T3M
      000000C1H   SFRSYM    DATA     BYTE      WDT_CONTR
      000000DFH   SFRSYM    DATA     BYTE      IP3
      000000F4H   SFRSYM    DATA     BYTE      USBCON
      000000B5H   SFRSYM    DATA     BYTE      IP2
      000000FFH   SFRSYM    DATA     BYTE      RSTCFG
      000000C7H   SFRSYM    DATA     BYTE      IAP_CONTR
      000000F9H   SFRSYM    DATA     BYTE      LINICR
      0000008EH   SFRSYM    DATA     BYTE      AUXR
      000000AFH   SFRSYM    DATA     BYTE      IE2
      00000088H   SFRSYM    DATA     BYTE      TCON
      00000089H   SFRSYM    DATA     BYTE      TMOD
      00000098H   SFRSYM    DATA     BYTE      SCON
      000000F1H   SFRSYM    DATA     BYTE      CANICR
      00000087H   SFRSYM    DATA     BYTE      PCON
      000000BCH   SFRSYM    DATA     BYTE      ADC_CONTR
      000000E7H   SFRSYM    DATA     BYTE      CMPCR2
      000000E6H   SFRSYM    DATA     BYTE      CMPCR1
      000000DEH   SFRSYM    DATA     BYTE      ADCCFG
      000000B8H   SFRSYM    DATA     BYTE      IP
      0000008FH   SFRSYM    DATA     BYTE      INTCLKO
      000000EEH   SFRSYM    DATA     BYTE      IP3H
      000000B6H   SFRSYM    DATA     BYTE      IP2H
L251 LINKER/LOCATER V4.66.93.0                                                        11/26/2024  21:46:51  PAGE 42


      000000A8H   SFRSYM    DATA     BYTE      IE
      000000BBH   SFRSYM    DATA     BYTE      P_SW3
      000000BAH   SFRSYM    DATA     BYTE      P_SW2
      000000A2H   SFRSYM    DATA     BYTE      P_SW1
      000000CEH   SFRSYM    DATA     BYTE      SPCTL
      000000F8H   SFRSYM    DATA     BYTE      P7
      000000E8H   SFRSYM    DATA     BYTE      P6
      000000A0H.2 SFRSYM    DATA     BIT       SPI_SS_2
      000000C8H   SFRSYM    DATA     BYTE      P5
      000000C0H   SFRSYM    DATA     BYTE      P4
      000000B0H   SFRSYM    DATA     BYTE      P3
      000000B3H   SFRSYM    DATA     BYTE      P4M1
      000000A0H   SFRSYM    DATA     BYTE      P2
      000000B4H   SFRSYM    DATA     BYTE      P4M0
      00000090H   SFRSYM    DATA     BYTE      P1
      00000095H   SFRSYM    DATA     BYTE      P2M1
      00000080H   SFRSYM    DATA     BYTE      P0
      00000096H   SFRSYM    DATA     BYTE      P2M0
      WR8         REGSYM    ---      WORD      txbuf
      WR0         REGSYM    ---      WORD      rxbuf
      WR8         REGSYM    ---      WORD      txbuf
      WR0         REGSYM    ---      WORD      rxbuf

      ---         MODULE    ---      ---       APP_DMA_UART
      00011810H   PUBLIC    XDATA    ---       DmaBuffer
      000000D0H   SFRSYM    DATA     BYTE      PSW
      0000009DH   SFRSYM    DATA     BYTE      IRCBAND
      00000097H   SFRSYM    DATA     BYTE      AUXR2
      000000EFH   SFRSYM    DATA     BYTE      AUXINTIF
      000000FDH   SFRSYM    DATA     BYTE      S4CON
      000000ACH   SFRSYM    DATA     BYTE      S3CON
      0000009AH   SFRSYM    DATA     BYTE      S2CON
      000000B7H   SFRSYM    DATA     BYTE      IPH
      000000CDH   SFRSYM    DATA     BYTE      SPSTAT
      000000DDH   SFRSYM    DATA     BYTE      T4T3M
      000000C1H   SFRSYM    DATA     BYTE      WDT_CONTR
      000000DFH   SFRSYM    DATA     BYTE      IP3
      000000F4H   SFRSYM    DATA     BYTE      USBCON
      000000B5H   SFRSYM    DATA     BYTE      IP2
      000000FFH   SFRSYM    DATA     BYTE      RSTCFG
      000000C7H   SFRSYM    DATA     BYTE      IAP_CONTR
      000000F9H   SFRSYM    DATA     BYTE      LINICR
      0000008EH   SFRSYM    DATA     BYTE      AUXR
      000000AFH   SFRSYM    DATA     BYTE      IE2
      00000088H   SFRSYM    DATA     BYTE      TCON
      00000089H   SFRSYM    DATA     BYTE      TMOD
      00000098H   SFRSYM    DATA     BYTE      SCON
      000000F1H   SFRSYM    DATA     BYTE      CANICR
      00000087H   SFRSYM    DATA     BYTE      PCON
      000000BCH   SFRSYM    DATA     BYTE      ADC_CONTR
      000000E7H   SFRSYM    DATA     BYTE      CMPCR2
      000000E6H   SFRSYM    DATA     BYTE      CMPCR1
      000000DEH   SFRSYM    DATA     BYTE      ADCCFG
      000000B8H   SFRSYM    DATA     BYTE      IP
      0000008FH   SFRSYM    DATA     BYTE      INTCLKO
      000000EEH   SFRSYM    DATA     BYTE      IP3H
      000000B6H   SFRSYM    DATA     BYTE      IP2H
      000000A8H   SFRSYM    DATA     BYTE      IE
      000000BBH   SFRSYM    DATA     BYTE      P_SW3
      000000BAH   SFRSYM    DATA     BYTE      P_SW2
      000000A2H   SFRSYM    DATA     BYTE      P_SW1
      000000CEH   SFRSYM    DATA     BYTE      SPCTL
      000000F8H   SFRSYM    DATA     BYTE      P7
      000000E8H   SFRSYM    DATA     BYTE      P6
      000000C8H   SFRSYM    DATA     BYTE      P5
L251 LINKER/LOCATER V4.66.93.0                                                        11/26/2024  21:46:51  PAGE 43


      000000C0H   SFRSYM    DATA     BYTE      P4
      000000B0H   SFRSYM    DATA     BYTE      P3
      000000B3H   SFRSYM    DATA     BYTE      P4M1
      000000A0H   SFRSYM    DATA     BYTE      P2
      000000B4H   SFRSYM    DATA     BYTE      P4M0
      00000090H   SFRSYM    DATA     BYTE      P1
      00000080H   SFRSYM    DATA     BYTE      P0
      WR6         REGSYM    ---      WORD      i

      ---         MODULE    ---      ---       APP_PWMA_Output
      00000022H.3 PUBLIC    BIT      BIT       PWM1_Flag
      00000022H.4 PUBLIC    BIT      BIT       PWM2_Flag
      00000022H.5 PUBLIC    BIT      BIT       PWM3_Flag
      00000022H.6 PUBLIC    BIT      BIT       PWM4_Flag
      00000531H   PUBLIC    EDATA    ---       PWMA_Duty
      000000D0H   SFRSYM    DATA     BYTE      PSW
      0000009DH   SFRSYM    DATA     BYTE      IRCBAND
      00000097H   SFRSYM    DATA     BYTE      AUXR2
      000000EFH   SFRSYM    DATA     BYTE      AUXINTIF
      000000FDH   SFRSYM    DATA     BYTE      S4CON
      000000ACH   SFRSYM    DATA     BYTE      S3CON
      0000009AH   SFRSYM    DATA     BYTE      S2CON
      000000B7H   SFRSYM    DATA     BYTE      IPH
      000000CDH   SFRSYM    DATA     BYTE      SPSTAT
      000000DDH   SFRSYM    DATA     BYTE      T4T3M
      000000C1H   SFRSYM    DATA     BYTE      WDT_CONTR
      000000DFH   SFRSYM    DATA     BYTE      IP3
      000000F4H   SFRSYM    DATA     BYTE      USBCON
      000000B5H   SFRSYM    DATA     BYTE      IP2
      000000FFH   SFRSYM    DATA     BYTE      RSTCFG
      000000C7H   SFRSYM    DATA     BYTE      IAP_CONTR
      000000F9H   SFRSYM    DATA     BYTE      LINICR
      0000008EH   SFRSYM    DATA     BYTE      AUXR
      000000AFH   SFRSYM    DATA     BYTE      IE2
      00000088H   SFRSYM    DATA     BYTE      TCON
      00000089H   SFRSYM    DATA     BYTE      TMOD
      00000098H   SFRSYM    DATA     BYTE      SCON
      000000C0H.0 SFRSYM    DATA     BIT       P40
      000000F1H   SFRSYM    DATA     BYTE      CANICR
      00000087H   SFRSYM    DATA     BYTE      PCON
      000000BCH   SFRSYM    DATA     BYTE      ADC_CONTR
      000000E7H   SFRSYM    DATA     BYTE      CMPCR2
      000000E6H   SFRSYM    DATA     BYTE      CMPCR1
      000000DEH   SFRSYM    DATA     BYTE      ADCCFG
      000000B8H   SFRSYM    DATA     BYTE      IP
      0000008FH   SFRSYM    DATA     BYTE      INTCLKO
      000000EEH   SFRSYM    DATA     BYTE      IP3H
      000000B6H   SFRSYM    DATA     BYTE      IP2H
      000000A8H   SFRSYM    DATA     BYTE      IE
      000000BBH   SFRSYM    DATA     BYTE      P_SW3
      000000BAH   SFRSYM    DATA     BYTE      P_SW2
      000000A2H   SFRSYM    DATA     BYTE      P_SW1
      000000CEH   SFRSYM    DATA     BYTE      SPCTL
      000000F8H   SFRSYM    DATA     BYTE      P7
      000000E8H   SFRSYM    DATA     BYTE      P6
      000000C8H   SFRSYM    DATA     BYTE      P5
      000000C0H   SFRSYM    DATA     BYTE      P4
      000000B0H   SFRSYM    DATA     BYTE      P3
      000000B3H   SFRSYM    DATA     BYTE      P4M1
      000000A0H   SFRSYM    DATA     BYTE      P2
      000000B4H   SFRSYM    DATA     BYTE      P4M0
      00000090H   SFRSYM    DATA     BYTE      P1
      00000080H   SFRSYM    DATA     BYTE      P0

      ---         MODULE    ---      ---       APP_PWMB_Output
L251 LINKER/LOCATER V4.66.93.0                                                        11/26/2024  21:46:51  PAGE 44


      00000022H.7 PUBLIC    BIT      BIT       PWM5_Flag
      00000023H.0 PUBLIC    BIT      BIT       PWM6_Flag
      00000023H.1 PUBLIC    BIT      BIT       PWM7_Flag
      00000023H.2 PUBLIC    BIT      BIT       PWM8_Flag
      00000541H   PUBLIC    EDATA    ---       PWMB_Duty
      000000D0H   SFRSYM    DATA     BYTE      PSW
      0000009DH   SFRSYM    DATA     BYTE      IRCBAND
      00000097H   SFRSYM    DATA     BYTE      AUXR2
      000000EFH   SFRSYM    DATA     BYTE      AUXINTIF
      000000FDH   SFRSYM    DATA     BYTE      S4CON
      000000ACH   SFRSYM    DATA     BYTE      S3CON
      0000009AH   SFRSYM    DATA     BYTE      S2CON
      000000B7H   SFRSYM    DATA     BYTE      IPH
      000000CDH   SFRSYM    DATA     BYTE      SPSTAT
      000000DDH   SFRSYM    DATA     BYTE      T4T3M
      000000C1H   SFRSYM    DATA     BYTE      WDT_CONTR
      000000DFH   SFRSYM    DATA     BYTE      IP3
      000000F4H   SFRSYM    DATA     BYTE      USBCON
      000000B5H   SFRSYM    DATA     BYTE      IP2
      000000FFH   SFRSYM    DATA     BYTE      RSTCFG
      000000C7H   SFRSYM    DATA     BYTE      IAP_CONTR
      000000F9H   SFRSYM    DATA     BYTE      LINICR
      0000008EH   SFRSYM    DATA     BYTE      AUXR
      000000AFH   SFRSYM    DATA     BYTE      IE2
      00000088H   SFRSYM    DATA     BYTE      TCON
      00000089H   SFRSYM    DATA     BYTE      TMOD
      00000098H   SFRSYM    DATA     BYTE      SCON
      000000F1H   SFRSYM    DATA     BYTE      CANICR
      00000087H   SFRSYM    DATA     BYTE      PCON
      000000BCH   SFRSYM    DATA     BYTE      ADC_CONTR
      000000E7H   SFRSYM    DATA     BYTE      CMPCR2
      000000E6H   SFRSYM    DATA     BYTE      CMPCR1
      000000DEH   SFRSYM    DATA     BYTE      ADCCFG
      000000B8H   SFRSYM    DATA     BYTE      IP
      0000008FH   SFRSYM    DATA     BYTE      INTCLKO
      000000EEH   SFRSYM    DATA     BYTE      IP3H
      000000B6H   SFRSYM    DATA     BYTE      IP2H
      000000A8H   SFRSYM    DATA     BYTE      IE
      000000BBH   SFRSYM    DATA     BYTE      P_SW3
      000000BAH   SFRSYM    DATA     BYTE      P_SW2
      000000A2H   SFRSYM    DATA     BYTE      P_SW1
      000000CEH   SFRSYM    DATA     BYTE      SPCTL
      000000F8H   SFRSYM    DATA     BYTE      P7
      000000E8H   SFRSYM    DATA     BYTE      P6
      000000C8H   SFRSYM    DATA     BYTE      P5
      000000C0H   SFRSYM    DATA     BYTE      P4
      000000B0H   SFRSYM    DATA     BYTE      P3
      000000A0H   SFRSYM    DATA     BYTE      P2
      00000090H   SFRSYM    DATA     BYTE      P1
      00000080H   SFRSYM    DATA     BYTE      P0

      ---         MODULE    ---      ---       APP_DMA_I2C
      00011610H   PUBLIC    XDATA    ---       I2cRxBuffer
      00011710H   PUBLIC    XDATA    ---       I2cTxBuffer
      000005B2H   PUBLIC    EDATA    BYTE      EEPROM_addr
      000000D0H   SFRSYM    DATA     BYTE      PSW
      0000009DH   SFRSYM    DATA     BYTE      IRCBAND
      00000097H   SFRSYM    DATA     BYTE      AUXR2
      000000EFH   SFRSYM    DATA     BYTE      AUXINTIF
      000000FDH   SFRSYM    DATA     BYTE      S4CON
      000000ACH   SFRSYM    DATA     BYTE      S3CON
      0000009AH   SFRSYM    DATA     BYTE      S2CON
      000000B7H   SFRSYM    DATA     BYTE      IPH
      000000CDH   SFRSYM    DATA     BYTE      SPSTAT
      000000DDH   SFRSYM    DATA     BYTE      T4T3M
L251 LINKER/LOCATER V4.66.93.0                                                        11/26/2024  21:46:51  PAGE 45


      000000C1H   SFRSYM    DATA     BYTE      WDT_CONTR
      000000DFH   SFRSYM    DATA     BYTE      IP3
      000000F4H   SFRSYM    DATA     BYTE      USBCON
      000000B5H   SFRSYM    DATA     BYTE      IP2
      000000FFH   SFRSYM    DATA     BYTE      RSTCFG
      000000C7H   SFRSYM    DATA     BYTE      IAP_CONTR
      000000F9H   SFRSYM    DATA     BYTE      LINICR
      0000008EH   SFRSYM    DATA     BYTE      AUXR
      000000AFH   SFRSYM    DATA     BYTE      IE2
      00000088H   SFRSYM    DATA     BYTE      TCON
      00000089H   SFRSYM    DATA     BYTE      TMOD
      00000098H   SFRSYM    DATA     BYTE      SCON
      000000F1H   SFRSYM    DATA     BYTE      CANICR
      00000087H   SFRSYM    DATA     BYTE      PCON
      000000BCH   SFRSYM    DATA     BYTE      ADC_CONTR
      000000E7H   SFRSYM    DATA     BYTE      CMPCR2
      000000E6H   SFRSYM    DATA     BYTE      CMPCR1
      000000DEH   SFRSYM    DATA     BYTE      ADCCFG
      000000B8H   SFRSYM    DATA     BYTE      IP
      0000008FH   SFRSYM    DATA     BYTE      INTCLKO
      000000EEH   SFRSYM    DATA     BYTE      IP3H
      000000B6H   SFRSYM    DATA     BYTE      IP2H
      000000A8H   SFRSYM    DATA     BYTE      IE
      000000BBH   SFRSYM    DATA     BYTE      P_SW3
      000000BAH   SFRSYM    DATA     BYTE      P_SW2
      000000A2H   SFRSYM    DATA     BYTE      P_SW1
      000000CEH   SFRSYM    DATA     BYTE      SPCTL
      000000F8H   SFRSYM    DATA     BYTE      P7
      000000E8H   SFRSYM    DATA     BYTE      P6
      000000C8H   SFRSYM    DATA     BYTE      P5
      000000C0H   SFRSYM    DATA     BYTE      P4
      000000B0H   SFRSYM    DATA     BYTE      P3
      000000B3H   SFRSYM    DATA     BYTE      P4M1
      000000A0H   SFRSYM    DATA     BYTE      P2
      000000B4H   SFRSYM    DATA     BYTE      P4M0
      00000090H   SFRSYM    DATA     BYTE      P1
      00000095H   SFRSYM    DATA     BYTE      P2M1
      00000080H   SFRSYM    DATA     BYTE      P0
      00000096H   SFRSYM    DATA     BYTE      P2M0
      R7          REGSYM    ---      BYTE      dat
      R15         REGSYM    ---      BYTE      address
      R14         REGSYM    ---      BYTE      i
      R13         REGSYM    ---      BYTE      j
      R14         REGSYM    ---      BYTE      i
      R15         REGSYM    ---      BYTE      length
      R15         REGSYM    ---      BYTE      i
      R14         REGSYM    ---      BYTE      j
      R13         REGSYM    ---      BYTE      addr
      R12         REGSYM    ---      BYTE      status
      R14         REGSYM    ---      BYTE      addr
      R15         REGSYM    ---      BYTE      number
      R14         REGSYM    ---      BYTE      addr
      R15         REGSYM    ---      BYTE      number

      ---         MODULE    ---      ---       APP_CAN
      000000D0H   SFRSYM    DATA     BYTE      PSW
      0000009DH   SFRSYM    DATA     BYTE      IRCBAND
      00000097H   SFRSYM    DATA     BYTE      AUXR2
      000000EFH   SFRSYM    DATA     BYTE      AUXINTIF
      000000FDH   SFRSYM    DATA     BYTE      S4CON
      000000ACH   SFRSYM    DATA     BYTE      S3CON
      0000009AH   SFRSYM    DATA     BYTE      S2CON
      000000B7H   SFRSYM    DATA     BYTE      IPH
      000000CDH   SFRSYM    DATA     BYTE      SPSTAT
      000000DDH   SFRSYM    DATA     BYTE      T4T3M
L251 LINKER/LOCATER V4.66.93.0                                                        11/26/2024  21:46:51  PAGE 46


      000000C1H   SFRSYM    DATA     BYTE      WDT_CONTR
      000000DFH   SFRSYM    DATA     BYTE      IP3
      000000F4H   SFRSYM    DATA     BYTE      USBCON
      000000B5H   SFRSYM    DATA     BYTE      IP2
      000000FFH   SFRSYM    DATA     BYTE      RSTCFG
      000000C7H   SFRSYM    DATA     BYTE      IAP_CONTR
      000000F9H   SFRSYM    DATA     BYTE      LINICR
      0000008EH   SFRSYM    DATA     BYTE      AUXR
      000000AFH   SFRSYM    DATA     BYTE      IE2
      00000097H.3 SFRSYM    DATA     BIT       CANSEL
      00000088H   SFRSYM    DATA     BYTE      TCON
      00000089H   SFRSYM    DATA     BYTE      TMOD
      00000098H   SFRSYM    DATA     BYTE      SCON
      000000F1H   SFRSYM    DATA     BYTE      CANICR
      00000087H   SFRSYM    DATA     BYTE      PCON
      000000BCH   SFRSYM    DATA     BYTE      ADC_CONTR
      000000E7H   SFRSYM    DATA     BYTE      CMPCR2
      000000E6H   SFRSYM    DATA     BYTE      CMPCR1
      000000DEH   SFRSYM    DATA     BYTE      ADCCFG
      000000B8H   SFRSYM    DATA     BYTE      IP
      0000008FH   SFRSYM    DATA     BYTE      INTCLKO
      000000EEH   SFRSYM    DATA     BYTE      IP3H
      000000B6H   SFRSYM    DATA     BYTE      IP2H
      000000A8H   SFRSYM    DATA     BYTE      IE
      000000BBH   SFRSYM    DATA     BYTE      P_SW3
      000000BAH   SFRSYM    DATA     BYTE      P_SW2
      000000A2H   SFRSYM    DATA     BYTE      P_SW1
      000000CEH   SFRSYM    DATA     BYTE      SPCTL
      000000F8H   SFRSYM    DATA     BYTE      P7
      000000E8H   SFRSYM    DATA     BYTE      P6
      000000C8H   SFRSYM    DATA     BYTE      P5
      000000C0H   SFRSYM    DATA     BYTE      P4
      000000C9H   SFRSYM    DATA     BYTE      P5M1
      000000B0H   SFRSYM    DATA     BYTE      P3
      000000CAH   SFRSYM    DATA     BYTE      P5M0
      000000A0H   SFRSYM    DATA     BYTE      P2
      000000B1H   SFRSYM    DATA     BYTE      P3M1
      00000090H   SFRSYM    DATA     BYTE      P1
      000000B2H   SFRSYM    DATA     BYTE      P3M0
      00000080H   SFRSYM    DATA     BYTE      P0
      R11         REGSYM    ---      BYTE      sr
      R13         REGSYM    ---      BYTE      n
      R15         REGSYM    ---      BYTE      i
      R14         REGSYM    ---      BYTE      j

      ---         MODULE    ---      ---       APP_LIN
      0000057BH   PUBLIC    EDATA    BYTE      Lin_ID
      0000057CH   PUBLIC    EDATA    ---       TX_BUF
      00000094H   SFRSYM    DATA     BYTE      P0M0
      000000D0H   SFRSYM    DATA     BYTE      PSW
      0000009DH   SFRSYM    DATA     BYTE      IRCBAND
      00000097H   SFRSYM    DATA     BYTE      AUXR2
      000000EFH   SFRSYM    DATA     BYTE      AUXINTIF
      000000FDH   SFRSYM    DATA     BYTE      S4CON
      000000ACH   SFRSYM    DATA     BYTE      S3CON
      0000009AH   SFRSYM    DATA     BYTE      S2CON
      000000B7H   SFRSYM    DATA     BYTE      IPH
      000000CDH   SFRSYM    DATA     BYTE      SPSTAT
      000000DDH   SFRSYM    DATA     BYTE      T4T3M
      000000C1H   SFRSYM    DATA     BYTE      WDT_CONTR
      000000DFH   SFRSYM    DATA     BYTE      IP3
      000000F4H   SFRSYM    DATA     BYTE      USBCON
      000000B5H   SFRSYM    DATA     BYTE      IP2
      000000FFH   SFRSYM    DATA     BYTE      RSTCFG
      000000C7H   SFRSYM    DATA     BYTE      IAP_CONTR
L251 LINKER/LOCATER V4.66.93.0                                                        11/26/2024  21:46:51  PAGE 47


      000000F9H   SFRSYM    DATA     BYTE      LINICR
      0000008EH   SFRSYM    DATA     BYTE      AUXR
      000000AFH   SFRSYM    DATA     BYTE      IE2
      000000B0H.3 SFRSYM    DATA     BIT       P33
      00000088H   SFRSYM    DATA     BYTE      TCON
      00000089H   SFRSYM    DATA     BYTE      TMOD
      000000B0H.2 SFRSYM    DATA     BIT       P32
      00000098H   SFRSYM    DATA     BYTE      SCON
      000000F1H   SFRSYM    DATA     BYTE      CANICR
      00000087H   SFRSYM    DATA     BYTE      PCON
      000000BCH   SFRSYM    DATA     BYTE      ADC_CONTR
      000000E7H   SFRSYM    DATA     BYTE      CMPCR2
      000000E6H   SFRSYM    DATA     BYTE      CMPCR1
      000000C8H.2 SFRSYM    DATA     BIT       SLP_N
      000000DEH   SFRSYM    DATA     BYTE      ADCCFG
      000000B8H   SFRSYM    DATA     BYTE      IP
      0000008FH   SFRSYM    DATA     BYTE      INTCLKO
      000000EEH   SFRSYM    DATA     BYTE      IP3H
      000000B6H   SFRSYM    DATA     BYTE      IP2H
      000000A8H   SFRSYM    DATA     BYTE      IE
      000000BBH   SFRSYM    DATA     BYTE      P_SW3
      000000BAH   SFRSYM    DATA     BYTE      P_SW2
      000000A2H   SFRSYM    DATA     BYTE      P_SW1
      000000CEH   SFRSYM    DATA     BYTE      SPCTL
      000000F8H   SFRSYM    DATA     BYTE      P7
      000000E8H   SFRSYM    DATA     BYTE      P6
      000000C8H   SFRSYM    DATA     BYTE      P5
      000000C0H   SFRSYM    DATA     BYTE      P4
      000000C9H   SFRSYM    DATA     BYTE      P5M1
      000000B0H   SFRSYM    DATA     BYTE      P3
      000000B3H   SFRSYM    DATA     BYTE      P4M1
      000000CAH   SFRSYM    DATA     BYTE      P5M0
      000000A0H   SFRSYM    DATA     BYTE      P2
      000000B4H   SFRSYM    DATA     BYTE      P4M0
      00000090H   SFRSYM    DATA     BYTE      P1
      00000080H   SFRSYM    DATA     BYTE      P0
      00000093H   SFRSYM    DATA     BYTE      P0M1
      R15         REGSYM    ---      BYTE      i

      ---         MODULE    ---      ---       APP_USART_LIN
      00000584H   PUBLIC    EDATA    ---       USART_BUF
      0000058CH   PUBLIC    EDATA    BYTE      ULin_ID
      000000D0H   SFRSYM    DATA     BYTE      PSW
      0000009DH   SFRSYM    DATA     BYTE      IRCBAND
      00000097H   SFRSYM    DATA     BYTE      AUXR2
      000000EFH   SFRSYM    DATA     BYTE      AUXINTIF
      000000FDH   SFRSYM    DATA     BYTE      S4CON
      000000ACH   SFRSYM    DATA     BYTE      S3CON
      0000009AH   SFRSYM    DATA     BYTE      S2CON
      000000B7H   SFRSYM    DATA     BYTE      IPH
      000000CDH   SFRSYM    DATA     BYTE      SPSTAT
      000000DDH   SFRSYM    DATA     BYTE      T4T3M
      000000C1H   SFRSYM    DATA     BYTE      WDT_CONTR
      000000DFH   SFRSYM    DATA     BYTE      IP3
      000000F4H   SFRSYM    DATA     BYTE      USBCON
      000000B5H   SFRSYM    DATA     BYTE      IP2
      000000FFH   SFRSYM    DATA     BYTE      RSTCFG
      000000C7H   SFRSYM    DATA     BYTE      IAP_CONTR
      000000F9H   SFRSYM    DATA     BYTE      LINICR
      0000008EH   SFRSYM    DATA     BYTE      AUXR
      000000AFH   SFRSYM    DATA     BYTE      IE2
      000000B0H.3 SFRSYM    DATA     BIT       P33
      00000088H   SFRSYM    DATA     BYTE      TCON
      00000089H   SFRSYM    DATA     BYTE      TMOD
      000000B0H.2 SFRSYM    DATA     BIT       P32
L251 LINKER/LOCATER V4.66.93.0                                                        11/26/2024  21:46:51  PAGE 48


      00000098H   SFRSYM    DATA     BYTE      SCON
      000000F1H   SFRSYM    DATA     BYTE      CANICR
      00000087H   SFRSYM    DATA     BYTE      PCON
      000000BCH   SFRSYM    DATA     BYTE      ADC_CONTR
      000000E7H   SFRSYM    DATA     BYTE      CMPCR2
      000000E6H   SFRSYM    DATA     BYTE      CMPCR1
      000000C8H.2 SFRSYM    DATA     BIT       SLP_N
      000000DEH   SFRSYM    DATA     BYTE      ADCCFG
      000000B8H   SFRSYM    DATA     BYTE      IP
      0000008FH   SFRSYM    DATA     BYTE      INTCLKO
      000000EEH   SFRSYM    DATA     BYTE      IP3H
      000000B6H   SFRSYM    DATA     BYTE      IP2H
      000000A8H   SFRSYM    DATA     BYTE      IE
      000000BBH   SFRSYM    DATA     BYTE      P_SW3
      000000BAH   SFRSYM    DATA     BYTE      P_SW2
      000000A2H   SFRSYM    DATA     BYTE      P_SW1
      000000CEH   SFRSYM    DATA     BYTE      SPCTL
      000000F8H   SFRSYM    DATA     BYTE      P7
      000000E8H   SFRSYM    DATA     BYTE      P6
      000000C8H   SFRSYM    DATA     BYTE      P5
      000000C0H   SFRSYM    DATA     BYTE      P4
      000000C9H   SFRSYM    DATA     BYTE      P5M1
      000000B0H   SFRSYM    DATA     BYTE      P3
      000000B3H   SFRSYM    DATA     BYTE      P4M1
      000000CAH   SFRSYM    DATA     BYTE      P5M0
      000000A0H   SFRSYM    DATA     BYTE      P2
      000000B4H   SFRSYM    DATA     BYTE      P4M0
      00000090H   SFRSYM    DATA     BYTE      P1
      00000080H   SFRSYM    DATA     BYTE      P0
      R15         REGSYM    ---      BYTE      i

      ---         MODULE    ---      ---       APP_USART2_LIN
      0000058DH   PUBLIC    EDATA    ---       USART2_BUF
      00000595H   PUBLIC    EDATA    BYTE      U2Lin_ID
      000000D0H   SFRSYM    DATA     BYTE      PSW
      0000009DH   SFRSYM    DATA     BYTE      IRCBAND
      00000097H   SFRSYM    DATA     BYTE      AUXR2
      000000EFH   SFRSYM    DATA     BYTE      AUXINTIF
      000000FDH   SFRSYM    DATA     BYTE      S4CON
      000000ACH   SFRSYM    DATA     BYTE      S3CON
      0000009AH   SFRSYM    DATA     BYTE      S2CON
      000000B7H   SFRSYM    DATA     BYTE      IPH
      000000CDH   SFRSYM    DATA     BYTE      SPSTAT
      000000DDH   SFRSYM    DATA     BYTE      T4T3M
      000000C1H   SFRSYM    DATA     BYTE      WDT_CONTR
      000000DFH   SFRSYM    DATA     BYTE      IP3
      000000F4H   SFRSYM    DATA     BYTE      USBCON
      000000B5H   SFRSYM    DATA     BYTE      IP2
      000000FFH   SFRSYM    DATA     BYTE      RSTCFG
      000000C7H   SFRSYM    DATA     BYTE      IAP_CONTR
      000000F9H   SFRSYM    DATA     BYTE      LINICR
      0000008EH   SFRSYM    DATA     BYTE      AUXR
      000000AFH   SFRSYM    DATA     BYTE      IE2
      000000B0H.3 SFRSYM    DATA     BIT       P33
      00000088H   SFRSYM    DATA     BYTE      TCON
      00000089H   SFRSYM    DATA     BYTE      TMOD
      000000B0H.2 SFRSYM    DATA     BIT       P32
      00000098H   SFRSYM    DATA     BYTE      SCON
      000000F1H   SFRSYM    DATA     BYTE      CANICR
      00000087H   SFRSYM    DATA     BYTE      PCON
      000000BCH   SFRSYM    DATA     BYTE      ADC_CONTR
      000000E7H   SFRSYM    DATA     BYTE      CMPCR2
      000000E6H   SFRSYM    DATA     BYTE      CMPCR1
      000000C8H.2 SFRSYM    DATA     BIT       SLP_N
      000000DEH   SFRSYM    DATA     BYTE      ADCCFG
L251 LINKER/LOCATER V4.66.93.0                                                        11/26/2024  21:46:51  PAGE 49


      000000B8H   SFRSYM    DATA     BYTE      IP
      0000008FH   SFRSYM    DATA     BYTE      INTCLKO
      000000EEH   SFRSYM    DATA     BYTE      IP3H
      000000B6H   SFRSYM    DATA     BYTE      IP2H
      000000A8H   SFRSYM    DATA     BYTE      IE
      000000BBH   SFRSYM    DATA     BYTE      P_SW3
      000000BAH   SFRSYM    DATA     BYTE      P_SW2
      000000A2H   SFRSYM    DATA     BYTE      P_SW1
      000000CEH   SFRSYM    DATA     BYTE      SPCTL
      000000F8H   SFRSYM    DATA     BYTE      P7
      000000E8H   SFRSYM    DATA     BYTE      P6
      000000C8H   SFRSYM    DATA     BYTE      P5
      000000C0H   SFRSYM    DATA     BYTE      P4
      000000C9H   SFRSYM    DATA     BYTE      P5M1
      000000B0H   SFRSYM    DATA     BYTE      P3
      000000B3H   SFRSYM    DATA     BYTE      P4M1
      000000CAH   SFRSYM    DATA     BYTE      P5M0
      000000A0H   SFRSYM    DATA     BYTE      P2
      000000B4H   SFRSYM    DATA     BYTE      P4M0
      00000090H   SFRSYM    DATA     BYTE      P1
      00000080H   SFRSYM    DATA     BYTE      P0
      R15         REGSYM    ---      BYTE      i

      ---         MODULE    ---      ---       APP_HSSPI
      00000596H   PUBLIC    EDATA    BYTE      PM25LV040_ID
      00000597H   PUBLIC    EDATA    BYTE      B_FlashOK
      00000598H   PUBLIC    EDATA    BYTE      PM25LV040_ID1
      00000599H   PUBLIC    EDATA    BYTE      PM25LV040_ID2
      0000059AH   PUBLIC    EDATA    DWORD     Flash_addr
      0000059EH   PUBLIC    EDATA    BYTE      sst_byte
      000000D0H   SFRSYM    DATA     BYTE      PSW
      0000009DH   SFRSYM    DATA     BYTE      IRCBAND
      000000D0H.5 SFRSYM    DATA     BIT       F0
      00000097H   SFRSYM    DATA     BYTE      AUXR2
      000000EFH   SFRSYM    DATA     BYTE      AUXINTIF
      000000A0H.3 SFRSYM    DATA     BIT       P_PM25LV040_SI
      000000FDH   SFRSYM    DATA     BYTE      S4CON
      000000ACH   SFRSYM    DATA     BYTE      S3CON
      0000009AH   SFRSYM    DATA     BYTE      S2CON
      000000B7H   SFRSYM    DATA     BYTE      IPH
      000000CDH   SFRSYM    DATA     BYTE      SPSTAT
      000000DDH   SFRSYM    DATA     BYTE      T4T3M
      000000C1H   SFRSYM    DATA     BYTE      WDT_CONTR
      000000A0H.2 SFRSYM    DATA     BIT       P_PM25LV040_CE
      000000DFH   SFRSYM    DATA     BYTE      IP3
      000000F4H   SFRSYM    DATA     BYTE      USBCON
      000000B5H   SFRSYM    DATA     BYTE      IP2
      000000FFH   SFRSYM    DATA     BYTE      RSTCFG
      000000C7H   SFRSYM    DATA     BYTE      IAP_CONTR
      000000F9H   SFRSYM    DATA     BYTE      LINICR
      0000008EH   SFRSYM    DATA     BYTE      AUXR
      000000AFH   SFRSYM    DATA     BYTE      IE2
      000000CDH.6 SFRSYM    DATA     BIT       WCOL
      00000088H   SFRSYM    DATA     BYTE      TCON
      00000089H   SFRSYM    DATA     BYTE      TMOD
      00000098H   SFRSYM    DATA     BYTE      SCON
      000000CDH.7 SFRSYM    DATA     BIT       SPIF
      000000F1H   SFRSYM    DATA     BYTE      CANICR
      00000087H   SFRSYM    DATA     BYTE      PCON
      000000BCH   SFRSYM    DATA     BYTE      ADC_CONTR
      000000A0H.5 SFRSYM    DATA     BIT       P_PM25LV040_SCK
      000000E7H   SFRSYM    DATA     BYTE      CMPCR2
      000000E6H   SFRSYM    DATA     BYTE      CMPCR1
      000000DEH   SFRSYM    DATA     BYTE      ADCCFG
      000000B8H   SFRSYM    DATA     BYTE      IP
L251 LINKER/LOCATER V4.66.93.0                                                        11/26/2024  21:46:51  PAGE 50


      0000008FH   SFRSYM    DATA     BYTE      INTCLKO
      000000EEH   SFRSYM    DATA     BYTE      IP3H
      000000B6H   SFRSYM    DATA     BYTE      IP2H
      000000A8H   SFRSYM    DATA     BYTE      IE
      000000BBH   SFRSYM    DATA     BYTE      P_SW3
      000000BAH   SFRSYM    DATA     BYTE      P_SW2
      000000A2H   SFRSYM    DATA     BYTE      P_SW1
      000000CEH   SFRSYM    DATA     BYTE      SPCTL
      000000F8H   SFRSYM    DATA     BYTE      P7
      000000E8H   SFRSYM    DATA     BYTE      P6
      000000C8H   SFRSYM    DATA     BYTE      P5
      000000C0H   SFRSYM    DATA     BYTE      P4
      000000B0H   SFRSYM    DATA     BYTE      P3
      000000B3H   SFRSYM    DATA     BYTE      P4M1
      000000A0H   SFRSYM    DATA     BYTE      P2
      000000B4H   SFRSYM    DATA     BYTE      P4M0
      00000090H   SFRSYM    DATA     BYTE      P1
      00000095H   SFRSYM    DATA     BYTE      P2M1
      00000080H   SFRSYM    DATA     BYTE      P0
      00000096H   SFRSYM    DATA     BYTE      P2M0
      R7          REGSYM    ---      BYTE      dat
      R7          REGSYM    ---      BYTE      dat
      DR12        REGSYM    ---      DWORD     address
      R14         REGSYM    ---      BYTE      i
      R15         REGSYM    ---      BYTE      length
      R14         REGSYM    ---      BYTE      i
      R15         REGSYM    ---      BYTE      j
      R11         REGSYM    ---      BYTE      dat
      REG=3       REGSYM    ---      ---       buffer
      REG=3       REGSYM    ---      ---       buffer
      REG=3       REGSYM    ---      ---       buffer

      ---         MODULE    ---      ---       APP_HSPWM
      000000D0H   SFRSYM    DATA     BYTE      PSW
      0000009DH   SFRSYM    DATA     BYTE      IRCBAND
      00000097H   SFRSYM    DATA     BYTE      AUXR2
      000000EFH   SFRSYM    DATA     BYTE      AUXINTIF
      000000FDH   SFRSYM    DATA     BYTE      S4CON
      000000ACH   SFRSYM    DATA     BYTE      S3CON
      0000009AH   SFRSYM    DATA     BYTE      S2CON
      000000B7H   SFRSYM    DATA     BYTE      IPH
      000000CDH   SFRSYM    DATA     BYTE      SPSTAT
      000000DDH   SFRSYM    DATA     BYTE      T4T3M
      000000C1H   SFRSYM    DATA     BYTE      WDT_CONTR
      000000DFH   SFRSYM    DATA     BYTE      IP3
      000000F4H   SFRSYM    DATA     BYTE      USBCON
      000000B5H   SFRSYM    DATA     BYTE      IP2
      000000FFH   SFRSYM    DATA     BYTE      RSTCFG
      000000C7H   SFRSYM    DATA     BYTE      IAP_CONTR
      000000F9H   SFRSYM    DATA     BYTE      LINICR
      0000008EH   SFRSYM    DATA     BYTE      AUXR
      000000AFH   SFRSYM    DATA     BYTE      IE2
      00000088H   SFRSYM    DATA     BYTE      TCON
      00000089H   SFRSYM    DATA     BYTE      TMOD
      00000098H   SFRSYM    DATA     BYTE      SCON
      000000C0H.0 SFRSYM    DATA     BIT       P40
      000000F1H   SFRSYM    DATA     BYTE      CANICR
      00000087H   SFRSYM    DATA     BYTE      PCON
      000000BCH   SFRSYM    DATA     BYTE      ADC_CONTR
      000000E7H   SFRSYM    DATA     BYTE      CMPCR2
      000000E6H   SFRSYM    DATA     BYTE      CMPCR1
      000000DEH   SFRSYM    DATA     BYTE      ADCCFG
      000000B8H   SFRSYM    DATA     BYTE      IP
      0000008FH   SFRSYM    DATA     BYTE      INTCLKO
      000000EEH   SFRSYM    DATA     BYTE      IP3H
L251 LINKER/LOCATER V4.66.93.0                                                        11/26/2024  21:46:51  PAGE 51


      000000B6H   SFRSYM    DATA     BYTE      IP2H
      000000A8H   SFRSYM    DATA     BYTE      IE
      000000BBH   SFRSYM    DATA     BYTE      P_SW3
      000000BAH   SFRSYM    DATA     BYTE      P_SW2
      000000A2H   SFRSYM    DATA     BYTE      P_SW1
      000000CEH   SFRSYM    DATA     BYTE      SPCTL
      000000F8H   SFRSYM    DATA     BYTE      P7
      000000E8H   SFRSYM    DATA     BYTE      P6
      000000C8H   SFRSYM    DATA     BYTE      P5
      000000C0H   SFRSYM    DATA     BYTE      P4
      000000B0H   SFRSYM    DATA     BYTE      P3
      000000B3H   SFRSYM    DATA     BYTE      P4M1
      000000A0H   SFRSYM    DATA     BYTE      P2
      000000B4H   SFRSYM    DATA     BYTE      P4M0
      00000090H   SFRSYM    DATA     BYTE      P1
      00000080H   SFRSYM    DATA     BYTE      P0

      ---         MODULE    ---      ---       STC32G_ADC
      00FF1EB0H   PUBLIC    CODE     ---       ADC_Inilize
      00FF25A5H   PUBLIC    CODE     ---       ADC_PowerControl
      00FF1E51H   PUBLIC    CODE     ---       Get_ADCResult
      000000D0H   SFRSYM    DATA     BYTE      PSW
      0000009DH   SFRSYM    DATA     BYTE      IRCBAND
      00000097H   SFRSYM    DATA     BYTE      AUXR2
      000000EFH   SFRSYM    DATA     BYTE      AUXINTIF
      000000FDH   SFRSYM    DATA     BYTE      S4CON
      000000ACH   SFRSYM    DATA     BYTE      S3CON
      0000009AH   SFRSYM    DATA     BYTE      S2CON
      000000B7H   SFRSYM    DATA     BYTE      IPH
      000000CDH   SFRSYM    DATA     BYTE      SPSTAT
      000000BEH   SFRSYM    DATA     BYTE      ADC_RESL
      000000DDH   SFRSYM    DATA     BYTE      T4T3M
      000000C1H   SFRSYM    DATA     BYTE      WDT_CONTR
      000000DEH.5 SFRSYM    DATA     BIT       RESFMT
      000000DFH   SFRSYM    DATA     BYTE      IP3
      000000F4H   SFRSYM    DATA     BYTE      USBCON
      000000B5H   SFRSYM    DATA     BYTE      IP2
      000000FFH   SFRSYM    DATA     BYTE      RSTCFG
      000000BCH.5 SFRSYM    DATA     BIT       ADC_FLAG
      000000C7H   SFRSYM    DATA     BYTE      IAP_CONTR
      000000F9H   SFRSYM    DATA     BYTE      LINICR
      0000008EH   SFRSYM    DATA     BYTE      AUXR
      000000AFH   SFRSYM    DATA     BYTE      IE2
      000000BCH.6 SFRSYM    DATA     BIT       ADC_START
      000000BCH.7 SFRSYM    DATA     BIT       ADC_POWER
      00000088H   SFRSYM    DATA     BYTE      TCON
      00000089H   SFRSYM    DATA     BYTE      TMOD
      00000098H   SFRSYM    DATA     BYTE      SCON
      000000F1H   SFRSYM    DATA     BYTE      CANICR
      00000087H   SFRSYM    DATA     BYTE      PCON
      000000BCH   SFRSYM    DATA     BYTE      ADC_CONTR
      000000E7H   SFRSYM    DATA     BYTE      CMPCR2
      000000E6H   SFRSYM    DATA     BYTE      CMPCR1
      000000DEH   SFRSYM    DATA     BYTE      ADCCFG
      000000B8H   SFRSYM    DATA     BYTE      IP
      0000008FH   SFRSYM    DATA     BYTE      INTCLKO
      000000EEH   SFRSYM    DATA     BYTE      IP3H
      000000B6H   SFRSYM    DATA     BYTE      IP2H
      000000BDH   SFRSYM    DATA     BYTE      ADC_RES
      000000A8H   SFRSYM    DATA     BYTE      IE
      000000BBH   SFRSYM    DATA     BYTE      P_SW3
      000000BAH   SFRSYM    DATA     BYTE      P_SW2
      000000A2H   SFRSYM    DATA     BYTE      P_SW1
      000000CEH   SFRSYM    DATA     BYTE      SPCTL
      000000F8H   SFRSYM    DATA     BYTE      P7
L251 LINKER/LOCATER V4.66.93.0                                                        11/26/2024  21:46:51  PAGE 52


      000000E8H   SFRSYM    DATA     BYTE      P6
      000000C8H   SFRSYM    DATA     BYTE      P5
      000000C0H   SFRSYM    DATA     BYTE      P4
      000000B0H   SFRSYM    DATA     BYTE      P3
      000000A0H   SFRSYM    DATA     BYTE      P2
      00000090H   SFRSYM    DATA     BYTE      P1
      00000080H   SFRSYM    DATA     BYTE      P0

      00FF1EB0H   BLOCK     CODE     ---       LVL=0
      REG=7       REGSYM    ---      ---       ADCx
      00FF1EB0H   LINE      CODE     ---       #22
      00FF1EB2H   LINE      CODE     ---       #24
      00FF1EBEH   LINE      CODE     ---       #25
      00FF1ECCH   LINE      CODE     ---       #27
      00FF1ED7H   LINE      CODE     ---       #28
      00FF1EE3H   LINE      CODE     ---       #29
      00FF1EEFH   LINE      CODE     ---       #31
      00FF1F0BH   LINE      CODE     ---       #32
      00FF1F0CH   LINE      CODE     ---       #33
      ---         BLOCKEND  ---      ---       LVL=0

      00FF25A5H   BLOCK     CODE     ---       LVL=0
      R7          REGSYM    ---      BYTE      pwr
      00FF25A5H   LINE      CODE     ---       #43
      00FF25A7H   LINE      CODE     ---       #45
      00FF25AFH   LINE      CODE     ---       #46
      00FF25B2H   LINE      CODE     ---       #47
      ---         BLOCKEND  ---      ---       LVL=0

      00FF1E51H   BLOCK     CODE     ---       LVL=0
      R10         REGSYM    ---      BYTE      channel
      00FF1E53H   BLOCK     CODE     NEAR LAB  LVL=1
      WR8         REGSYM    ---      WORD      adc
      R7          REGSYM    ---      BYTE      i
      ---         BLOCKEND  ---      ---       LVL=1
      00FF1E51H   LINE      CODE     ---       #56
      00FF1E53H   LINE      CODE     ---       #57
      00FF1E53H   LINE      CODE     ---       #61
      00FF1E5AH   LINE      CODE     ---       #62
      00FF1E5DH   LINE      CODE     ---       #63
      00FF1E60H   LINE      CODE     ---       #65
      00FF1E68H   LINE      CODE     ---       #66
      00FF1E6BH   LINE      CODE     ---       #67
      00FF1E75H   LINE      CODE     ---       #69
      00FF1E78H   LINE      CODE     ---       #71
      00FF1E7CH   LINE      CODE     ---       #73
      00FF1E7FH   LINE      CODE     ---       #74
      00FF1E83H   LINE      CODE     ---       #76
      00FF1E8BH   LINE      CODE     ---       #77
      00FF1E8DH   LINE      CODE     ---       #80
      00FF1E91H   LINE      CODE     ---       #81
      00FF1EA4H   LINE      CODE     ---       #82
      00FF1EA4H   LINE      CODE     ---       #83
      00FF1EA7H   LINE      CODE     ---       #84
      00FF1EABH   LINE      CODE     ---       #86
      00FF1EAFH   LINE      CODE     ---       #87
      ---         BLOCKEND  ---      ---       LVL=0

      ---         MODULE    ---      ---       STC32G_Compare
      000000D0H   SFRSYM    DATA     BYTE      PSW
      0000009DH   SFRSYM    DATA     BYTE      IRCBAND
      000000E6H.1 SFRSYM    DATA     BIT       CMPOE
      000000E6H.7 SFRSYM    DATA     BIT       CMPEN
      00000097H   SFRSYM    DATA     BYTE      AUXR2
      000000EFH   SFRSYM    DATA     BYTE      AUXINTIF
L251 LINKER/LOCATER V4.66.93.0                                                        11/26/2024  21:46:51  PAGE 53


      000000FDH   SFRSYM    DATA     BYTE      S4CON
      000000ACH   SFRSYM    DATA     BYTE      S3CON
      0000009AH   SFRSYM    DATA     BYTE      S2CON
      000000B7H   SFRSYM    DATA     BYTE      IPH
      000000CDH   SFRSYM    DATA     BYTE      SPSTAT
      000000DDH   SFRSYM    DATA     BYTE      T4T3M
      000000C1H   SFRSYM    DATA     BYTE      WDT_CONTR
      000000DFH   SFRSYM    DATA     BYTE      IP3
      000000F4H   SFRSYM    DATA     BYTE      USBCON
      000000B5H   SFRSYM    DATA     BYTE      IP2
      000000FFH   SFRSYM    DATA     BYTE      RSTCFG
      000000E7H.6 SFRSYM    DATA     BIT       DISFLT
      000000C7H   SFRSYM    DATA     BYTE      IAP_CONTR
      000000F9H   SFRSYM    DATA     BYTE      LINICR
      0000008EH   SFRSYM    DATA     BYTE      AUXR
      000000AFH   SFRSYM    DATA     BYTE      IE2
      00000088H   SFRSYM    DATA     BYTE      TCON
      00000089H   SFRSYM    DATA     BYTE      TMOD
      00000098H   SFRSYM    DATA     BYTE      SCON
      000000F1H   SFRSYM    DATA     BYTE      CANICR
      00000087H   SFRSYM    DATA     BYTE      PCON
      000000BCH   SFRSYM    DATA     BYTE      ADC_CONTR
      000000E7H   SFRSYM    DATA     BYTE      CMPCR2
      000000E6H   SFRSYM    DATA     BYTE      CMPCR1
      000000E7H.7 SFRSYM    DATA     BIT       INVCMPO
      000000DEH   SFRSYM    DATA     BYTE      ADCCFG
      000000B8H   SFRSYM    DATA     BYTE      IP
      0000008FH   SFRSYM    DATA     BYTE      INTCLKO
      000000EEH   SFRSYM    DATA     BYTE      IP3H
      000000B6H   SFRSYM    DATA     BYTE      IP2H
      000000A8H   SFRSYM    DATA     BYTE      IE
      000000BBH   SFRSYM    DATA     BYTE      P_SW3
      000000BAH   SFRSYM    DATA     BYTE      P_SW2
      000000A2H   SFRSYM    DATA     BYTE      P_SW1
      000000CEH   SFRSYM    DATA     BYTE      SPCTL
      000000F8H   SFRSYM    DATA     BYTE      P7
      000000E8H   SFRSYM    DATA     BYTE      P6
      000000C8H   SFRSYM    DATA     BYTE      P5
      000000C0H   SFRSYM    DATA     BYTE      P4
      000000B0H   SFRSYM    DATA     BYTE      P3
      000000A0H   SFRSYM    DATA     BYTE      P2
      00000090H   SFRSYM    DATA     BYTE      P1
      00000080H   SFRSYM    DATA     BYTE      P0
      REG=7       REGSYM    ---      ---       CMPx

      ---         MODULE    ---      ---       STC32G_Delay
      000000D0H   SFRSYM    DATA     BYTE      PSW
      0000009DH   SFRSYM    DATA     BYTE      IRCBAND
      00000097H   SFRSYM    DATA     BYTE      AUXR2
      000000EFH   SFRSYM    DATA     BYTE      AUXINTIF
      000000FDH   SFRSYM    DATA     BYTE      S4CON
      000000ACH   SFRSYM    DATA     BYTE      S3CON
      0000009AH   SFRSYM    DATA     BYTE      S2CON
      000000B7H   SFRSYM    DATA     BYTE      IPH
      000000CDH   SFRSYM    DATA     BYTE      SPSTAT
      000000DDH   SFRSYM    DATA     BYTE      T4T3M
      000000C1H   SFRSYM    DATA     BYTE      WDT_CONTR
      000000DFH   SFRSYM    DATA     BYTE      IP3
      000000F4H   SFRSYM    DATA     BYTE      USBCON
      000000B5H   SFRSYM    DATA     BYTE      IP2
      000000FFH   SFRSYM    DATA     BYTE      RSTCFG
      000000C7H   SFRSYM    DATA     BYTE      IAP_CONTR
      000000F9H   SFRSYM    DATA     BYTE      LINICR
      0000008EH   SFRSYM    DATA     BYTE      AUXR
      000000AFH   SFRSYM    DATA     BYTE      IE2
L251 LINKER/LOCATER V4.66.93.0                                                        11/26/2024  21:46:51  PAGE 54


      00000088H   SFRSYM    DATA     BYTE      TCON
      00000089H   SFRSYM    DATA     BYTE      TMOD
      00000098H   SFRSYM    DATA     BYTE      SCON
      000000F1H   SFRSYM    DATA     BYTE      CANICR
      00000087H   SFRSYM    DATA     BYTE      PCON
      000000BCH   SFRSYM    DATA     BYTE      ADC_CONTR
      000000E7H   SFRSYM    DATA     BYTE      CMPCR2
      000000E6H   SFRSYM    DATA     BYTE      CMPCR1
      000000DEH   SFRSYM    DATA     BYTE      ADCCFG
      000000B8H   SFRSYM    DATA     BYTE      IP
      0000008FH   SFRSYM    DATA     BYTE      INTCLKO
      000000EEH   SFRSYM    DATA     BYTE      IP3H
      000000B6H   SFRSYM    DATA     BYTE      IP2H
      000000A8H   SFRSYM    DATA     BYTE      IE
      000000BBH   SFRSYM    DATA     BYTE      P_SW3
      000000BAH   SFRSYM    DATA     BYTE      P_SW2
      000000A2H   SFRSYM    DATA     BYTE      P_SW1
      000000CEH   SFRSYM    DATA     BYTE      SPCTL
      000000F8H   SFRSYM    DATA     BYTE      P7
      000000E8H   SFRSYM    DATA     BYTE      P6
      000000C8H   SFRSYM    DATA     BYTE      P5
      000000C0H   SFRSYM    DATA     BYTE      P4
      000000B0H   SFRSYM    DATA     BYTE      P3
      000000A0H   SFRSYM    DATA     BYTE      P2
      00000090H   SFRSYM    DATA     BYTE      P1
      00000080H   SFRSYM    DATA     BYTE      P0
      WR4         REGSYM    ---      WORD      ms
      WR6         REGSYM    ---      WORD      i

      ---         MODULE    ---      ---       STC32G_EEPROM
      000000D0H   SFRSYM    DATA     BYTE      PSW
      0000009DH   SFRSYM    DATA     BYTE      IRCBAND
      000000D0H.5 SFRSYM    DATA     BIT       F0
      00000097H   SFRSYM    DATA     BYTE      AUXR2
      000000C6H   SFRSYM    DATA     BYTE      IAP_TRIG
      000000C7H.7 SFRSYM    DATA     BIT       IAPEN
      000000EFH   SFRSYM    DATA     BYTE      AUXINTIF
      000000FDH   SFRSYM    DATA     BYTE      S4CON
      000000ACH   SFRSYM    DATA     BYTE      S3CON
      0000009AH   SFRSYM    DATA     BYTE      S2CON
      000000B7H   SFRSYM    DATA     BYTE      IPH
      000000CDH   SFRSYM    DATA     BYTE      SPSTAT
      000000DDH   SFRSYM    DATA     BYTE      T4T3M
      000000C1H   SFRSYM    DATA     BYTE      WDT_CONTR
      000000C2H   SFRSYM    DATA     BYTE      IAP_DATA
      000000DFH   SFRSYM    DATA     BYTE      IP3
      000000F4H   SFRSYM    DATA     BYTE      USBCON
      000000B5H   SFRSYM    DATA     BYTE      IP2
      000000FFH   SFRSYM    DATA     BYTE      RSTCFG
      000000C7H   SFRSYM    DATA     BYTE      IAP_CONTR
      000000F9H   SFRSYM    DATA     BYTE      LINICR
      0000008EH   SFRSYM    DATA     BYTE      AUXR
      000000AFH   SFRSYM    DATA     BYTE      IE2
      00000088H   SFRSYM    DATA     BYTE      TCON
      00000089H   SFRSYM    DATA     BYTE      TMOD
      00000098H   SFRSYM    DATA     BYTE      SCON
      000000F5H   SFRSYM    DATA     BYTE      IAP_TPS
      000000F1H   SFRSYM    DATA     BYTE      CANICR
      00000087H   SFRSYM    DATA     BYTE      PCON
      000000BCH   SFRSYM    DATA     BYTE      ADC_CONTR
      000000E7H   SFRSYM    DATA     BYTE      CMPCR2
      000000E6H   SFRSYM    DATA     BYTE      CMPCR1
      000000C4H   SFRSYM    DATA     BYTE      IAP_ADDRL
      000000C3H   SFRSYM    DATA     BYTE      IAP_ADDRH
      000000F6H   SFRSYM    DATA     BYTE      IAP_ADDRE
L251 LINKER/LOCATER V4.66.93.0                                                        11/26/2024  21:46:51  PAGE 55


      000000DEH   SFRSYM    DATA     BYTE      ADCCFG
      000000B8H   SFRSYM    DATA     BYTE      IP
      0000008FH   SFRSYM    DATA     BYTE      INTCLKO
      000000EEH   SFRSYM    DATA     BYTE      IP3H
      000000B6H   SFRSYM    DATA     BYTE      IP2H
      000000C5H   SFRSYM    DATA     BYTE      IAP_CMD
      000000A8H   SFRSYM    DATA     BYTE      IE
      000000BBH   SFRSYM    DATA     BYTE      P_SW3
      000000BAH   SFRSYM    DATA     BYTE      P_SW2
      000000A2H   SFRSYM    DATA     BYTE      P_SW1
      000000CEH   SFRSYM    DATA     BYTE      SPCTL
      000000F8H   SFRSYM    DATA     BYTE      P7
      000000A8H.7 SFRSYM    DATA     BIT       EA
      000000E8H   SFRSYM    DATA     BYTE      P6
      000000C8H   SFRSYM    DATA     BYTE      P5
      000000C0H   SFRSYM    DATA     BYTE      P4
      000000B0H   SFRSYM    DATA     BYTE      P3
      000000A0H   SFRSYM    DATA     BYTE      P2
      00000090H   SFRSYM    DATA     BYTE      P1
      00000080H   SFRSYM    DATA     BYTE      P0
      DR12        REGSYM    ---      DWORD     EE_address
      DR4         REGSYM    ---      DWORD     EE_address
      DR12        REGSYM    ---      DWORD     EE_address

      ---         MODULE    ---      ---       STC32G_Exti
      000000D0H   SFRSYM    DATA     BYTE      PSW
      0000009DH   SFRSYM    DATA     BYTE      IRCBAND
      00000097H   SFRSYM    DATA     BYTE      AUXR2
      000000EFH   SFRSYM    DATA     BYTE      AUXINTIF
      000000FDH   SFRSYM    DATA     BYTE      S4CON
      000000ACH   SFRSYM    DATA     BYTE      S3CON
      0000009AH   SFRSYM    DATA     BYTE      S2CON
      000000B7H   SFRSYM    DATA     BYTE      IPH
      000000CDH   SFRSYM    DATA     BYTE      SPSTAT
      000000DDH   SFRSYM    DATA     BYTE      T4T3M
      000000C1H   SFRSYM    DATA     BYTE      WDT_CONTR
      00000088H.2 SFRSYM    DATA     BIT       IT1
      00000088H.0 SFRSYM    DATA     BIT       IT0
      000000DFH   SFRSYM    DATA     BYTE      IP3
      000000F4H   SFRSYM    DATA     BYTE      USBCON
      000000B5H   SFRSYM    DATA     BYTE      IP2
      000000FFH   SFRSYM    DATA     BYTE      RSTCFG
      000000C7H   SFRSYM    DATA     BYTE      IAP_CONTR
      000000F9H   SFRSYM    DATA     BYTE      LINICR
      0000008EH   SFRSYM    DATA     BYTE      AUXR
      000000AFH   SFRSYM    DATA     BYTE      IE2
      00000088H.3 SFRSYM    DATA     BIT       IE1
      00000088H.1 SFRSYM    DATA     BIT       IE0
      00000088H   SFRSYM    DATA     BYTE      TCON
      00000089H   SFRSYM    DATA     BYTE      TMOD
      00000098H   SFRSYM    DATA     BYTE      SCON
      000000F1H   SFRSYM    DATA     BYTE      CANICR
      00000087H   SFRSYM    DATA     BYTE      PCON
      000000BCH   SFRSYM    DATA     BYTE      ADC_CONTR
      000000E7H   SFRSYM    DATA     BYTE      CMPCR2
      000000E6H   SFRSYM    DATA     BYTE      CMPCR1
      000000DEH   SFRSYM    DATA     BYTE      ADCCFG
      000000B8H   SFRSYM    DATA     BYTE      IP
      0000008FH   SFRSYM    DATA     BYTE      INTCLKO
      000000EEH   SFRSYM    DATA     BYTE      IP3H
      000000B6H   SFRSYM    DATA     BYTE      IP2H
      000000A8H   SFRSYM    DATA     BYTE      IE
      000000BBH   SFRSYM    DATA     BYTE      P_SW3
      000000BAH   SFRSYM    DATA     BYTE      P_SW2
      000000A2H   SFRSYM    DATA     BYTE      P_SW1
L251 LINKER/LOCATER V4.66.93.0                                                        11/26/2024  21:46:51  PAGE 56


      000000CEH   SFRSYM    DATA     BYTE      SPCTL
      000000F8H   SFRSYM    DATA     BYTE      P7
      000000E8H   SFRSYM    DATA     BYTE      P6
      000000C8H   SFRSYM    DATA     BYTE      P5
      000000C0H   SFRSYM    DATA     BYTE      P4
      000000B0H   SFRSYM    DATA     BYTE      P3
      000000A0H   SFRSYM    DATA     BYTE      P2
      00000090H   SFRSYM    DATA     BYTE      P1
      00000080H   SFRSYM    DATA     BYTE      P0
      R7          REGSYM    ---      BYTE      EXT
      REG=0       REGSYM    ---      ---       INTx

      ---         MODULE    ---      ---       STC32G_GPIO
      00000094H   SFRSYM    DATA     BYTE      P0M0
      000000D0H   SFRSYM    DATA     BYTE      PSW
      0000009DH   SFRSYM    DATA     BYTE      IRCBAND
      00000097H   SFRSYM    DATA     BYTE      AUXR2
      000000EFH   SFRSYM    DATA     BYTE      AUXINTIF
      000000FDH   SFRSYM    DATA     BYTE      S4CON
      000000ACH   SFRSYM    DATA     BYTE      S3CON
      0000009AH   SFRSYM    DATA     BYTE      S2CON
      000000B7H   SFRSYM    DATA     BYTE      IPH
      000000CDH   SFRSYM    DATA     BYTE      SPSTAT
      000000DDH   SFRSYM    DATA     BYTE      T4T3M
      000000C1H   SFRSYM    DATA     BYTE      WDT_CONTR
      000000DFH   SFRSYM    DATA     BYTE      IP3
      000000F4H   SFRSYM    DATA     BYTE      USBCON
      000000B5H   SFRSYM    DATA     BYTE      IP2
      000000FFH   SFRSYM    DATA     BYTE      RSTCFG
      000000C7H   SFRSYM    DATA     BYTE      IAP_CONTR
      000000F9H   SFRSYM    DATA     BYTE      LINICR
      0000008EH   SFRSYM    DATA     BYTE      AUXR
      000000AFH   SFRSYM    DATA     BYTE      IE2
      00000088H   SFRSYM    DATA     BYTE      TCON
      00000089H   SFRSYM    DATA     BYTE      TMOD
      00000098H   SFRSYM    DATA     BYTE      SCON
      000000F1H   SFRSYM    DATA     BYTE      CANICR
      00000087H   SFRSYM    DATA     BYTE      PCON
      000000BCH   SFRSYM    DATA     BYTE      ADC_CONTR
      000000E7H   SFRSYM    DATA     BYTE      CMPCR2
      000000E6H   SFRSYM    DATA     BYTE      CMPCR1
      000000DEH   SFRSYM    DATA     BYTE      ADCCFG
      000000B8H   SFRSYM    DATA     BYTE      IP
      0000008FH   SFRSYM    DATA     BYTE      INTCLKO
      000000EEH   SFRSYM    DATA     BYTE      IP3H
      000000B6H   SFRSYM    DATA     BYTE      IP2H
      000000A8H   SFRSYM    DATA     BYTE      IE
      000000BBH   SFRSYM    DATA     BYTE      P_SW3
      000000BAH   SFRSYM    DATA     BYTE      P_SW2
      000000A2H   SFRSYM    DATA     BYTE      P_SW1
      000000CEH   SFRSYM    DATA     BYTE      SPCTL
      000000F8H   SFRSYM    DATA     BYTE      P7
      000000E1H   SFRSYM    DATA     BYTE      P7M1
      000000E8H   SFRSYM    DATA     BYTE      P6
      000000C8H   SFRSYM    DATA     BYTE      P5
      000000CBH   SFRSYM    DATA     BYTE      P6M1
      000000E2H   SFRSYM    DATA     BYTE      P7M0
      000000C0H   SFRSYM    DATA     BYTE      P4
      000000C9H   SFRSYM    DATA     BYTE      P5M1
      000000CCH   SFRSYM    DATA     BYTE      P6M0
      000000B0H   SFRSYM    DATA     BYTE      P3
      000000B3H   SFRSYM    DATA     BYTE      P4M1
      000000CAH   SFRSYM    DATA     BYTE      P5M0
      000000A0H   SFRSYM    DATA     BYTE      P2
      000000B1H   SFRSYM    DATA     BYTE      P3M1
L251 LINKER/LOCATER V4.66.93.0                                                        11/26/2024  21:46:51  PAGE 57


      000000B4H   SFRSYM    DATA     BYTE      P4M0
      00000090H   SFRSYM    DATA     BYTE      P1
      00000095H   SFRSYM    DATA     BYTE      P2M1
      000000B2H   SFRSYM    DATA     BYTE      P3M0
      00000080H   SFRSYM    DATA     BYTE      P0
      00000091H   SFRSYM    DATA     BYTE      P1M1
      00000096H   SFRSYM    DATA     BYTE      P2M0
      00000092H   SFRSYM    DATA     BYTE      P1M0
      00000093H   SFRSYM    DATA     BYTE      P0M1
      R10         REGSYM    ---      BYTE      GPIO
      REG=0       REGSYM    ---      ---       GPIOx

      ---         MODULE    ---      ---       STC32G_I2C
      00FF1A55H   PUBLIC    CODE     ---       I2C_Init
      0000059FH   PUBLIC    EDATA    ---       I2C_Buffer
      000000D0H   SFRSYM    DATA     BYTE      PSW
      0000009DH   SFRSYM    DATA     BYTE      IRCBAND
      00000097H   SFRSYM    DATA     BYTE      AUXR2
      000000EFH   SFRSYM    DATA     BYTE      AUXINTIF
      000000FDH   SFRSYM    DATA     BYTE      S4CON
      000000ACH   SFRSYM    DATA     BYTE      S3CON
      0000009AH   SFRSYM    DATA     BYTE      S2CON
      000000B7H   SFRSYM    DATA     BYTE      IPH
      000000CDH   SFRSYM    DATA     BYTE      SPSTAT
      000000DDH   SFRSYM    DATA     BYTE      T4T3M
      000000C1H   SFRSYM    DATA     BYTE      WDT_CONTR
      000000DFH   SFRSYM    DATA     BYTE      IP3
      000000F4H   SFRSYM    DATA     BYTE      USBCON
      000000B5H   SFRSYM    DATA     BYTE      IP2
      000000FFH   SFRSYM    DATA     BYTE      RSTCFG
      000000C7H   SFRSYM    DATA     BYTE      IAP_CONTR
      000000F9H   SFRSYM    DATA     BYTE      LINICR
      0000008EH   SFRSYM    DATA     BYTE      AUXR
      000000AFH   SFRSYM    DATA     BYTE      IE2
      00000088H   SFRSYM    DATA     BYTE      TCON
      00000089H   SFRSYM    DATA     BYTE      TMOD
      00000098H   SFRSYM    DATA     BYTE      SCON
      000000F1H   SFRSYM    DATA     BYTE      CANICR
      00000087H   SFRSYM    DATA     BYTE      PCON
      000000BCH   SFRSYM    DATA     BYTE      ADC_CONTR
      000000E7H   SFRSYM    DATA     BYTE      CMPCR2
      000000E6H   SFRSYM    DATA     BYTE      CMPCR1
      000000DEH   SFRSYM    DATA     BYTE      ADCCFG
      000000B8H   SFRSYM    DATA     BYTE      IP
      0000008FH   SFRSYM    DATA     BYTE      INTCLKO
      000000EEH   SFRSYM    DATA     BYTE      IP3H
      000000B6H   SFRSYM    DATA     BYTE      IP2H
      000000A8H   SFRSYM    DATA     BYTE      IE
      000000BBH   SFRSYM    DATA     BYTE      P_SW3
      000000BAH   SFRSYM    DATA     BYTE      P_SW2
      000000A2H   SFRSYM    DATA     BYTE      P_SW1
      000000CEH   SFRSYM    DATA     BYTE      SPCTL
      000000F8H   SFRSYM    DATA     BYTE      P7
      000000E8H   SFRSYM    DATA     BYTE      P6
      000000C8H   SFRSYM    DATA     BYTE      P5
      000000C0H   SFRSYM    DATA     BYTE      P4
      000000B0H   SFRSYM    DATA     BYTE      P3
      000000A0H   SFRSYM    DATA     BYTE      P2
      00000090H   SFRSYM    DATA     BYTE      P1
      00000080H   SFRSYM    DATA     BYTE      P0

      00FF1A55H   BLOCK     CODE     ---       LVL=0
      REG=7       REGSYM    ---      ---       I2Cx
      00FF1A55H   LINE      CODE     ---       #28
      00FF1A57H   LINE      CODE     ---       #30
L251 LINKER/LOCATER V4.66.93.0                                                        11/26/2024  21:46:51  PAGE 58


      00FF1A5EH   LINE      CODE     ---       #32
      00FF1A6EH   LINE      CODE     ---       #33
      00FF1A7AH   LINE      CODE     ---       #34
      00FF1A8BH   LINE      CODE     ---       #35
      00FF1A9CH   LINE      CODE     ---       #36
      00FF1AA4H   LINE      CODE     ---       #37
      00FF1AA6H   LINE      CODE     ---       #40
      00FF1AB6H   LINE      CODE     ---       #41
      00FF1ABEH   LINE      CODE     ---       #42
      00FF1AD3H   LINE      CODE     ---       #43
      00FF1AE1H   LINE      CODE     ---       #44
      00FF1AE9H   LINE      CODE     ---       #45
      00FF1AE9H   LINE      CODE     ---       #47
      00FF1B0EH   LINE      CODE     ---       #48
      ---         BLOCKEND  ---      ---       LVL=0
      R11         REGSYM    ---      CHAR      dat
      R11         REGSYM    ---      BYTE      cmd
      R10         REGSYM    ---      BYTE      dat
      REG=3       REGSYM    ---      ---       p
      REG=3       REGSYM    ---      ---       p

      ---         MODULE    ---      ---       STC32G_LCM
      000000D0H   SFRSYM    DATA     BYTE      PSW
      0000009DH   SFRSYM    DATA     BYTE      IRCBAND
      00000097H   SFRSYM    DATA     BYTE      AUXR2
      000000EFH   SFRSYM    DATA     BYTE      AUXINTIF
      000000FDH   SFRSYM    DATA     BYTE      S4CON
      000000ACH   SFRSYM    DATA     BYTE      S3CON
      0000009AH   SFRSYM    DATA     BYTE      S2CON
      000000B7H   SFRSYM    DATA     BYTE      IPH
      000000CDH   SFRSYM    DATA     BYTE      SPSTAT
      000000DDH   SFRSYM    DATA     BYTE      T4T3M
      000000C1H   SFRSYM    DATA     BYTE      WDT_CONTR
      000000DFH   SFRSYM    DATA     BYTE      IP3
      000000F4H   SFRSYM    DATA     BYTE      USBCON
      000000B5H   SFRSYM    DATA     BYTE      IP2
      000000FFH   SFRSYM    DATA     BYTE      RSTCFG
      000000C7H   SFRSYM    DATA     BYTE      IAP_CONTR
      000000F9H   SFRSYM    DATA     BYTE      LINICR
      0000008EH   SFRSYM    DATA     BYTE      AUXR
      000000AFH   SFRSYM    DATA     BYTE      IE2
      00000088H   SFRSYM    DATA     BYTE      TCON
      00000089H   SFRSYM    DATA     BYTE      TMOD
      00000098H   SFRSYM    DATA     BYTE      SCON
      000000F1H   SFRSYM    DATA     BYTE      CANICR
      00000087H   SFRSYM    DATA     BYTE      PCON
      000000BCH   SFRSYM    DATA     BYTE      ADC_CONTR
      000000E7H   SFRSYM    DATA     BYTE      CMPCR2
      000000E6H   SFRSYM    DATA     BYTE      CMPCR1
      000000DEH   SFRSYM    DATA     BYTE      ADCCFG
      000000B8H   SFRSYM    DATA     BYTE      IP
      0000008FH   SFRSYM    DATA     BYTE      INTCLKO
      000000EEH   SFRSYM    DATA     BYTE      IP3H
      000000B6H   SFRSYM    DATA     BYTE      IP2H
      000000A8H   SFRSYM    DATA     BYTE      IE
      000000BBH   SFRSYM    DATA     BYTE      P_SW3
      000000BAH   SFRSYM    DATA     BYTE      P_SW2
      000000A2H   SFRSYM    DATA     BYTE      P_SW1
      000000CEH   SFRSYM    DATA     BYTE      SPCTL
      000000F8H   SFRSYM    DATA     BYTE      P7
      000000E8H   SFRSYM    DATA     BYTE      P6
      000000C8H   SFRSYM    DATA     BYTE      P5
      000000C0H   SFRSYM    DATA     BYTE      P4
      000000B0H   SFRSYM    DATA     BYTE      P3
      000000A0H   SFRSYM    DATA     BYTE      P2
L251 LINKER/LOCATER V4.66.93.0                                                        11/26/2024  21:46:51  PAGE 59


      00000090H   SFRSYM    DATA     BYTE      P1
      00000080H   SFRSYM    DATA     BYTE      P0
      REG=7       REGSYM    ---      ---       LCM

      ---         MODULE    ---      ---       STC32G_NVIC
      00FF1FFAH   PUBLIC    CODE     ---       NVIC_Timer0_Init
      00FF1C19H   PUBLIC    CODE     ---       NVIC_I2C_Init
      00FF2042H   PUBLIC    CODE     ---       NVIC_ADC_Init
      00FF208AH   PUBLIC    CODE     ---       NVIC_UART1_Init
      000000F9H.3 SFRSYM    DATA     BIT       PLINH
      000000D0H   SFRSYM    DATA     BYTE      PSW
      000000B6H.5 SFRSYM    DATA     BIT       PCMPH
      0000009DH   SFRSYM    DATA     BYTE      IRCBAND
      00000097H   SFRSYM    DATA     BYTE      AUXR2
      000000F9H.1 SFRSYM    DATA     BIT       LINIE
      000000F1H.0 SFRSYM    DATA     BIT       PCANL
      000000B7H.4 SFRSYM    DATA     BIT       PSH
      000000EFH   SFRSYM    DATA     BYTE      AUXINTIF
      000000F1H.3 SFRSYM    DATA     BIT       PCANH
      000000FDH   SFRSYM    DATA     BYTE      S4CON
      000000ACH   SFRSYM    DATA     BYTE      S3CON
      0000009AH   SFRSYM    DATA     BYTE      S2CON
      000000B7H   SFRSYM    DATA     BYTE      IPH
      000000B7H.5 SFRSYM    DATA     BIT       PADCH
      000000CDH   SFRSYM    DATA     BYTE      SPSTAT
      000000F1H.1 SFRSYM    DATA     BIT       CANIE
      000000E6H.5 SFRSYM    DATA     BIT       PIE
      000000DDH   SFRSYM    DATA     BYTE      T4T3M
      000000E6H.4 SFRSYM    DATA     BIT       NIE
      000000B8H.2 SFRSYM    DATA     BIT       PX1
      000000B8H.0 SFRSYM    DATA     BIT       PX0
      000000C1H   SFRSYM    DATA     BYTE      WDT_CONTR
      000000DFH.1 SFRSYM    DATA     BIT       PS4
      000000DFH.0 SFRSYM    DATA     BIT       PS3
      000000B5H.0 SFRSYM    DATA     BIT       PS2
      000000B8H.3 SFRSYM    DATA     BIT       PT1
      000000B8H.1 SFRSYM    DATA     BIT       PT0
      0000008FH.6 SFRSYM    DATA     BIT       EX4
      0000008FH.5 SFRSYM    DATA     BIT       EX3
      000000B6H.3 SFRSYM    DATA     BIT       PPWMBH
      0000008FH.4 SFRSYM    DATA     BIT       EX2
      000000B6H.2 SFRSYM    DATA     BIT       PPWMAH
      000000A8H.2 SFRSYM    DATA     BIT       EX1
      000000A8H.0 SFRSYM    DATA     BIT       EX0
      000000AFH.6 SFRSYM    DATA     BIT       ET4
      000000AFH.5 SFRSYM    DATA     BIT       ET3
      000000AFH.4 SFRSYM    DATA     BIT       ES4
      000000DFH   SFRSYM    DATA     BYTE      IP3
      000000F4H   SFRSYM    DATA     BYTE      USBCON
      000000AFH.3 SFRSYM    DATA     BIT       ES3
      000000AFH.2 SFRSYM    DATA     BIT       ET2
      000000B5H   SFRSYM    DATA     BYTE      IP2
      000000FFH   SFRSYM    DATA     BYTE      RSTCFG
      000000A8H.3 SFRSYM    DATA     BIT       ET1
      000000AFH.0 SFRSYM    DATA     BIT       ES2
      000000A8H.1 SFRSYM    DATA     BIT       ET0
      000000C7H   SFRSYM    DATA     BYTE      IAP_CONTR
      000000F9H   SFRSYM    DATA     BYTE      LINICR
      0000008EH   SFRSYM    DATA     BYTE      AUXR
      000000AFH   SFRSYM    DATA     BYTE      IE2
      000000B5H.1 SFRSYM    DATA     BIT       PSPI
      000000DFH.2 SFRSYM    DATA     BIT       PRTC
      00000088H   SFRSYM    DATA     BYTE      TCON
      00000089H   SFRSYM    DATA     BYTE      TMOD
      00000098H   SFRSYM    DATA     BYTE      SCON
L251 LINKER/LOCATER V4.66.93.0                                                        11/26/2024  21:46:51  PAGE 60


      000000AFH.1 SFRSYM    DATA     BIT       ESPI
      000000F1H   SFRSYM    DATA     BYTE      CANICR
      00000087H   SFRSYM    DATA     BYTE      PCON
      000000B5H.5 SFRSYM    DATA     BIT       PCMP
      000000BCH   SFRSYM    DATA     BYTE      ADC_CONTR
      000000E7H   SFRSYM    DATA     BYTE      CMPCR2
      000000E6H   SFRSYM    DATA     BYTE      CMPCR1
      000000B8H.4 SFRSYM    DATA     BIT       PS
      000000B7H.2 SFRSYM    DATA     BIT       PX1H
      000000F1H.4 SFRSYM    DATA     BIT       PCAN2L
      000000B7H.0 SFRSYM    DATA     BIT       PX0H
      000000EEH.1 SFRSYM    DATA     BIT       PS4H
      000000EEH.0 SFRSYM    DATA     BIT       PS3H
      000000B6H.0 SFRSYM    DATA     BIT       PS2H
      000000B7H.3 SFRSYM    DATA     BIT       PT1H
      000000F1H.7 SFRSYM    DATA     BIT       PCAN2H
      000000B7H.1 SFRSYM    DATA     BIT       PT0H
      000000DEH   SFRSYM    DATA     BYTE      ADCCFG
      000000B8H   SFRSYM    DATA     BYTE      IP
      000000B8H.5 SFRSYM    DATA     BIT       PADC
      000000A8H.4 SFRSYM    DATA     BIT       ES
      0000008FH   SFRSYM    DATA     BYTE      INTCLKO
      000000EEH   SFRSYM    DATA     BYTE      IP3H
      000000B6H   SFRSYM    DATA     BYTE      IP2H
      000000F1H.5 SFRSYM    DATA     BIT       CAN2IE
      000000A8H   SFRSYM    DATA     BYTE      IE
      000000A8H.5 SFRSYM    DATA     BIT       EADC
      000000BBH   SFRSYM    DATA     BYTE      P_SW3
      000000BAH   SFRSYM    DATA     BYTE      P_SW2
      000000A2H   SFRSYM    DATA     BYTE      P_SW1
      000000B5H.3 SFRSYM    DATA     BIT       PPWMB
      000000CEH   SFRSYM    DATA     BYTE      SPCTL
      000000B5H.2 SFRSYM    DATA     BIT       PPWMA
      000000F8H   SFRSYM    DATA     BYTE      P7
      000000B6H.1 SFRSYM    DATA     BIT       PSPIH
      000000E8H   SFRSYM    DATA     BYTE      P6
      000000C8H   SFRSYM    DATA     BYTE      P5
      000000C0H   SFRSYM    DATA     BYTE      P4
      000000B0H   SFRSYM    DATA     BYTE      P3
      000000EEH.2 SFRSYM    DATA     BIT       PRTCH
      000000A0H   SFRSYM    DATA     BYTE      P2
      00000090H   SFRSYM    DATA     BYTE      P1
      000000F9H.0 SFRSYM    DATA     BIT       PLINL
      00000080H   SFRSYM    DATA     BYTE      P0

      00FF1FFAH   BLOCK     CODE     ---       LVL=0
      R7          REGSYM    ---      BYTE      State
      R6          REGSYM    ---      BYTE      Priority
      00FF1FFAH   LINE      CODE     ---       #24
      00FF1FFEH   LINE      CODE     ---       #26
      00FF2012H   LINE      CODE     ---       #27
      00FF2040H   LINE      CODE     ---       #28
      00FF2041H   LINE      CODE     ---       #29
      ---         BLOCKEND  ---      ---       LVL=0
      R7          REGSYM    ---      BYTE      State
      R6          REGSYM    ---      BYTE      Priority
      R7          REGSYM    ---      BYTE      State
      R7          REGSYM    ---      BYTE      State
      R7          REGSYM    ---      BYTE      State
      R7          REGSYM    ---      BYTE      State
      R6          REGSYM    ---      BYTE      Priority
      R7          REGSYM    ---      BYTE      State
      R6          REGSYM    ---      BYTE      Priority
      R7          REGSYM    ---      BYTE      State
      R7          REGSYM    ---      BYTE      State
L251 LINKER/LOCATER V4.66.93.0                                                        11/26/2024  21:46:51  PAGE 61


      R7          REGSYM    ---      BYTE      State

      00FF2042H   BLOCK     CODE     ---       LVL=0
      R7          REGSYM    ---      BYTE      State
      R6          REGSYM    ---      BYTE      Priority
      00FF2042H   LINE      CODE     ---       #174
      00FF2046H   LINE      CODE     ---       #176
      00FF205AH   LINE      CODE     ---       #177
      00FF2088H   LINE      CODE     ---       #178
      00FF2089H   LINE      CODE     ---       #179
      ---         BLOCKEND  ---      ---       LVL=0
      R7          REGSYM    ---      BYTE      State
      R10         REGSYM    ---      BYTE      Priority

      00FF1C19H   BLOCK     CODE     ---       LVL=0
      R3          REGSYM    ---      BYTE      Mode
      R10         REGSYM    ---      BYTE      State
      R2          REGSYM    ---      BYTE      Priority
      00FF1C19H   LINE      CODE     ---       #209
      00FF1C1FH   LINE      CODE     ---       #211
      00FF1C27H   LINE      CODE     ---       #212
      00FF1C2BH   LINE      CODE     ---       #214
      00FF1C4EH   LINE      CODE     ---       #215
      00FF1C50H   LINE      CODE     ---       #216
      00FF1C54H   LINE      CODE     ---       #218
      00FF1C67H   LINE      CODE     ---       #219
      00FF1C67H   LINE      CODE     ---       #220
      00FF1C99H   LINE      CODE     ---       #221
      00FF1C9AH   LINE      CODE     ---       #222
      ---         BLOCKEND  ---      ---       LVL=0

      00FF208AH   BLOCK     CODE     ---       LVL=0
      R7          REGSYM    ---      BYTE      State
      R6          REGSYM    ---      BYTE      Priority
      00FF208AH   LINE      CODE     ---       #232
      00FF208EH   LINE      CODE     ---       #234
      00FF20A2H   LINE      CODE     ---       #235
      00FF20D0H   LINE      CODE     ---       #236
      00FF20D1H   LINE      CODE     ---       #237
      ---         BLOCKEND  ---      ---       LVL=0
      R7          REGSYM    ---      BYTE      State
      R6          REGSYM    ---      BYTE      Priority
      R7          REGSYM    ---      BYTE      State
      R6          REGSYM    ---      BYTE      Priority
      R7          REGSYM    ---      BYTE      State
      R6          REGSYM    ---      BYTE      Priority
      R7          REGSYM    ---      BYTE      State
      R6          REGSYM    ---      BYTE      Priority
      R3          REGSYM    ---      BYTE      State
      R10         REGSYM    ---      BYTE      Priority
      R6          REGSYM    ---      BYTE      Channel
      R3          REGSYM    ---      BYTE      State
      R2          REGSYM    ---      BYTE      Priority
      R9          REGSYM    ---      BYTE      State
      R3          REGSYM    ---      BYTE      Priority
      R10         REGSYM    ---      BYTE      Bus_Priority
      R9          REGSYM    ---      BYTE      State
      R3          REGSYM    ---      BYTE      Priority
      R10         REGSYM    ---      BYTE      Bus_Priority
      R9          REGSYM    ---      BYTE      State
      R3          REGSYM    ---      BYTE      Priority
      R10         REGSYM    ---      BYTE      Bus_Priority
      R9          REGSYM    ---      BYTE      State
      R3          REGSYM    ---      BYTE      Priority
      R10         REGSYM    ---      BYTE      Bus_Priority
L251 LINKER/LOCATER V4.66.93.0                                                        11/26/2024  21:46:51  PAGE 62


      R9          REGSYM    ---      BYTE      State
      R3          REGSYM    ---      BYTE      Priority
      R10         REGSYM    ---      BYTE      Bus_Priority
      R9          REGSYM    ---      BYTE      State
      R3          REGSYM    ---      BYTE      Priority
      R10         REGSYM    ---      BYTE      Bus_Priority
      R9          REGSYM    ---      BYTE      State
      R3          REGSYM    ---      BYTE      Priority
      R10         REGSYM    ---      BYTE      Bus_Priority
      R9          REGSYM    ---      BYTE      State
      R3          REGSYM    ---      BYTE      Priority
      R10         REGSYM    ---      BYTE      Bus_Priority
      R9          REGSYM    ---      BYTE      State
      R3          REGSYM    ---      BYTE      Priority
      R10         REGSYM    ---      BYTE      Bus_Priority
      R9          REGSYM    ---      BYTE      State
      R3          REGSYM    ---      BYTE      Priority
      R10         REGSYM    ---      BYTE      Bus_Priority
      R9          REGSYM    ---      BYTE      State
      R3          REGSYM    ---      BYTE      Priority
      R10         REGSYM    ---      BYTE      Bus_Priority
      R9          REGSYM    ---      BYTE      State
      R3          REGSYM    ---      BYTE      Priority
      R10         REGSYM    ---      BYTE      Bus_Priority
      R9          REGSYM    ---      BYTE      State
      R10         REGSYM    ---      BYTE      Priority
      R9          REGSYM    ---      BYTE      State
      R3          REGSYM    ---      BYTE      Priority
      R10         REGSYM    ---      BYTE      Bus_Priority
      R9          REGSYM    ---      BYTE      State
      R3          REGSYM    ---      BYTE      Priority
      R10         REGSYM    ---      BYTE      Bus_Priority
      R11         REGSYM    ---      BYTE      Channel
      R10         REGSYM    ---      BYTE      State
      R6          REGSYM    ---      BYTE      Priority
      R7          REGSYM    ---      BYTE      State
      R6          REGSYM    ---      BYTE      Priority

      ---         MODULE    ---      ---       STC32G_Soft_I2C
      000000D0H   SFRSYM    DATA     BYTE      PSW
      0000009DH   SFRSYM    DATA     BYTE      IRCBAND
      000000D0H.5 SFRSYM    DATA     BIT       F0
      00000097H   SFRSYM    DATA     BYTE      AUXR2
      000000EFH   SFRSYM    DATA     BYTE      AUXINTIF
      000000FDH   SFRSYM    DATA     BYTE      S4CON
      000000ACH   SFRSYM    DATA     BYTE      S3CON
      0000009AH   SFRSYM    DATA     BYTE      S2CON
      00000080H.0 SFRSYM    DATA     BIT       SCL
      000000B7H   SFRSYM    DATA     BYTE      IPH
      000000CDH   SFRSYM    DATA     BYTE      SPSTAT
      000000DDH   SFRSYM    DATA     BYTE      T4T3M
      000000C1H   SFRSYM    DATA     BYTE      WDT_CONTR
      00000080H.1 SFRSYM    DATA     BIT       SDA
      000000DFH   SFRSYM    DATA     BYTE      IP3
      000000F4H   SFRSYM    DATA     BYTE      USBCON
      000000B5H   SFRSYM    DATA     BYTE      IP2
      000000FFH   SFRSYM    DATA     BYTE      RSTCFG
      000000C7H   SFRSYM    DATA     BYTE      IAP_CONTR
      000000F9H   SFRSYM    DATA     BYTE      LINICR
      0000008EH   SFRSYM    DATA     BYTE      AUXR
      000000AFH   SFRSYM    DATA     BYTE      IE2
      00000088H   SFRSYM    DATA     BYTE      TCON
      00000089H   SFRSYM    DATA     BYTE      TMOD
      00000098H   SFRSYM    DATA     BYTE      SCON
      000000F1H   SFRSYM    DATA     BYTE      CANICR
L251 LINKER/LOCATER V4.66.93.0                                                        11/26/2024  21:46:51  PAGE 63


      00000087H   SFRSYM    DATA     BYTE      PCON
      000000BCH   SFRSYM    DATA     BYTE      ADC_CONTR
      000000E7H   SFRSYM    DATA     BYTE      CMPCR2
      000000E6H   SFRSYM    DATA     BYTE      CMPCR1
      000000DEH   SFRSYM    DATA     BYTE      ADCCFG
      000000B8H   SFRSYM    DATA     BYTE      IP
      0000008FH   SFRSYM    DATA     BYTE      INTCLKO
      000000EEH   SFRSYM    DATA     BYTE      IP3H
      000000B6H   SFRSYM    DATA     BYTE      IP2H
      000000A8H   SFRSYM    DATA     BYTE      IE
      000000BBH   SFRSYM    DATA     BYTE      P_SW3
      000000BAH   SFRSYM    DATA     BYTE      P_SW2
      000000A2H   SFRSYM    DATA     BYTE      P_SW1
      000000CEH   SFRSYM    DATA     BYTE      SPCTL
      000000F8H   SFRSYM    DATA     BYTE      P7
      000000E8H   SFRSYM    DATA     BYTE      P6
      000000C8H   SFRSYM    DATA     BYTE      P5
      000000C0H   SFRSYM    DATA     BYTE      P4
      000000B0H   SFRSYM    DATA     BYTE      P3
      000000A0H   SFRSYM    DATA     BYTE      P2
      00000090H   SFRSYM    DATA     BYTE      P1
      00000080H   SFRSYM    DATA     BYTE      P0
      R10         REGSYM    ---      BYTE      dly
      R15         REGSYM    ---      BYTE      dat
      R14         REGSYM    ---      BYTE      i
      R15         REGSYM    ---      BYTE      i
      R14         REGSYM    ---      BYTE      dat
      REG=3       REGSYM    ---      ---       p
      REG=3       REGSYM    ---      ---       p

      ---         MODULE    ---      ---       STC32G_Soft_UART
      000000D0H   SFRSYM    DATA     BYTE      PSW
      0000009DH   SFRSYM    DATA     BYTE      IRCBAND
      00000097H   SFRSYM    DATA     BYTE      AUXR2
      000000EFH   SFRSYM    DATA     BYTE      AUXINTIF
      000000FDH   SFRSYM    DATA     BYTE      S4CON
      000000ACH   SFRSYM    DATA     BYTE      S3CON
      0000009AH   SFRSYM    DATA     BYTE      S2CON
      000000B7H   SFRSYM    DATA     BYTE      IPH
      000000CDH   SFRSYM    DATA     BYTE      SPSTAT
      000000DDH   SFRSYM    DATA     BYTE      T4T3M
      000000C1H   SFRSYM    DATA     BYTE      WDT_CONTR
      000000DFH   SFRSYM    DATA     BYTE      IP3
      000000F4H   SFRSYM    DATA     BYTE      USBCON
      000000B5H   SFRSYM    DATA     BYTE      IP2
      000000FFH   SFRSYM    DATA     BYTE      RSTCFG
      000000C7H   SFRSYM    DATA     BYTE      IAP_CONTR
      000000F9H   SFRSYM    DATA     BYTE      LINICR
      0000008EH   SFRSYM    DATA     BYTE      AUXR
      000000AFH   SFRSYM    DATA     BYTE      IE2
      00000088H   SFRSYM    DATA     BYTE      TCON
      00000089H   SFRSYM    DATA     BYTE      TMOD
      00000098H   SFRSYM    DATA     BYTE      SCON
      000000F1H   SFRSYM    DATA     BYTE      CANICR
      00000087H   SFRSYM    DATA     BYTE      PCON
      000000BCH   SFRSYM    DATA     BYTE      ADC_CONTR
      000000E7H   SFRSYM    DATA     BYTE      CMPCR2
      000000E6H   SFRSYM    DATA     BYTE      CMPCR1
      00000090H.7 SFRSYM    DATA     BIT       P_TXD
      000000DEH   SFRSYM    DATA     BYTE      ADCCFG
      000000B8H   SFRSYM    DATA     BYTE      IP
      0000008FH   SFRSYM    DATA     BYTE      INTCLKO
      000000EEH   SFRSYM    DATA     BYTE      IP3H
      000000B6H   SFRSYM    DATA     BYTE      IP2H
      000000A8H   SFRSYM    DATA     BYTE      IE
L251 LINKER/LOCATER V4.66.93.0                                                        11/26/2024  21:46:51  PAGE 64


      000000BBH   SFRSYM    DATA     BYTE      P_SW3
      000000BAH   SFRSYM    DATA     BYTE      P_SW2
      000000A2H   SFRSYM    DATA     BYTE      P_SW1
      000000CEH   SFRSYM    DATA     BYTE      SPCTL
      000000F8H   SFRSYM    DATA     BYTE      P7
      000000A8H.7 SFRSYM    DATA     BIT       EA
      000000E8H   SFRSYM    DATA     BYTE      P6
      000000C8H   SFRSYM    DATA     BYTE      P5
      000000C0H   SFRSYM    DATA     BYTE      P4
      000000B0H   SFRSYM    DATA     BYTE      P3
      000000A0H   SFRSYM    DATA     BYTE      P2
      00000090H   SFRSYM    DATA     BYTE      P1
      00000080H   SFRSYM    DATA     BYTE      P0
      WR6         REGSYM    ---      WORD      i
      R15         REGSYM    ---      BYTE      dat
      R14         REGSYM    ---      BYTE      i
      REG=7       REGSYM    ---      ---       puts

      ---         MODULE    ---      ---       STC32G_SPI
      00000024H.6 PUBLIC    BIT      BIT       B_SPI_Busy
      00000424H   PUBLIC    EDATA    BYTE      SPI_RxTimerOut
      00000425H   PUBLIC    EDATA    ---       SPI_RxBuffer
      000000CFH   SFRSYM    DATA     BYTE      SPDAT
      000000D0H   SFRSYM    DATA     BYTE      PSW
      0000009DH   SFRSYM    DATA     BYTE      IRCBAND
      00000097H   SFRSYM    DATA     BYTE      AUXR2
      000000EFH   SFRSYM    DATA     BYTE      AUXINTIF
      000000FDH   SFRSYM    DATA     BYTE      S4CON
      000000ACH   SFRSYM    DATA     BYTE      S3CON
      0000009AH   SFRSYM    DATA     BYTE      S2CON
      000000B7H   SFRSYM    DATA     BYTE      IPH
      000000CDH   SFRSYM    DATA     BYTE      SPSTAT
      000000DDH   SFRSYM    DATA     BYTE      T4T3M
      000000C1H   SFRSYM    DATA     BYTE      WDT_CONTR
      000000DFH   SFRSYM    DATA     BYTE      IP3
      000000F4H   SFRSYM    DATA     BYTE      USBCON
      000000B5H   SFRSYM    DATA     BYTE      IP2
      000000FFH   SFRSYM    DATA     BYTE      RSTCFG
      000000CEH.4 SFRSYM    DATA     BIT       MSTR
      000000C7H   SFRSYM    DATA     BYTE      IAP_CONTR
      000000F9H   SFRSYM    DATA     BYTE      LINICR
      0000008EH   SFRSYM    DATA     BYTE      AUXR
      000000AFH   SFRSYM    DATA     BYTE      IE2
      000000CEH.7 SFRSYM    DATA     BIT       SSIG
      000000CEH.6 SFRSYM    DATA     BIT       SPEN
      000000CDH.6 SFRSYM    DATA     BIT       WCOL
      00000088H   SFRSYM    DATA     BYTE      TCON
      00000089H   SFRSYM    DATA     BYTE      TMOD
      00000098H   SFRSYM    DATA     BYTE      SCON
      000000CDH.7 SFRSYM    DATA     BIT       SPIF
      000000AFH.1 SFRSYM    DATA     BIT       ESPI
      000000F1H   SFRSYM    DATA     BYTE      CANICR
      00000087H   SFRSYM    DATA     BYTE      PCON
      000000BCH   SFRSYM    DATA     BYTE      ADC_CONTR
      000000CEH.3 SFRSYM    DATA     BIT       CPOL
      000000CEH.5 SFRSYM    DATA     BIT       DORD
      000000E7H   SFRSYM    DATA     BYTE      CMPCR2
      000000E6H   SFRSYM    DATA     BYTE      CMPCR1
      000000CEH.2 SFRSYM    DATA     BIT       CPHA
      000000DEH   SFRSYM    DATA     BYTE      ADCCFG
      000000B8H   SFRSYM    DATA     BYTE      IP
      0000008FH   SFRSYM    DATA     BYTE      INTCLKO
      000000EEH   SFRSYM    DATA     BYTE      IP3H
      000000B6H   SFRSYM    DATA     BYTE      IP2H
      000000A8H   SFRSYM    DATA     BYTE      IE
L251 LINKER/LOCATER V4.66.93.0                                                        11/26/2024  21:46:51  PAGE 65


      000000BBH   SFRSYM    DATA     BYTE      P_SW3
      000000BAH   SFRSYM    DATA     BYTE      P_SW2
      000000A2H   SFRSYM    DATA     BYTE      P_SW1
      000000CEH   SFRSYM    DATA     BYTE      SPCTL
      000000F8H   SFRSYM    DATA     BYTE      P7
      000000E8H   SFRSYM    DATA     BYTE      P6
      000000C8H   SFRSYM    DATA     BYTE      P5
      000000C0H   SFRSYM    DATA     BYTE      P4
      000000B0H   SFRSYM    DATA     BYTE      P3
      000000A0H   SFRSYM    DATA     BYTE      P2
      00000090H   SFRSYM    DATA     BYTE      P1
      00000080H   SFRSYM    DATA     BYTE      P0
      REG=0       REGSYM    ---      ---       SPIx
      R7          REGSYM    ---      BYTE      mode
      R7          REGSYM    ---      BYTE      dat

      ---         MODULE    ---      ---       STC32G_Timer
      00FF12C4H   PUBLIC    CODE     ---       Timer_Inilize
      0000008EH.3 SFRSYM    DATA     BIT       T2_CT
      00000089H.6 SFRSYM    DATA     BIT       T1_CT
      00000089H.2 SFRSYM    DATA     BIT       T0_CT
      000000D0H   SFRSYM    DATA     BYTE      PSW
      0000009DH   SFRSYM    DATA     BYTE      IRCBAND
      00000097H   SFRSYM    DATA     BYTE      AUXR2
      000000EFH   SFRSYM    DATA     BYTE      AUXINTIF
      000000FDH   SFRSYM    DATA     BYTE      S4CON
      000000ACH   SFRSYM    DATA     BYTE      S3CON
      0000009AH   SFRSYM    DATA     BYTE      S2CON
      000000DDH.5 SFRSYM    DATA     BIT       T4x12
      000000DDH.1 SFRSYM    DATA     BIT       T3x12
      0000008EH.2 SFRSYM    DATA     BIT       T2x12
      0000008EH.6 SFRSYM    DATA     BIT       T1x12
      000000B7H   SFRSYM    DATA     BYTE      IPH
      000000CDH   SFRSYM    DATA     BYTE      SPSTAT
      0000008EH.7 SFRSYM    DATA     BIT       T0x12
      000000DDH   SFRSYM    DATA     BYTE      T4T3M
      000000DDH.7 SFRSYM    DATA     BIT       T4R
      000000DDH.3 SFRSYM    DATA     BIT       T3R
      0000008EH.4 SFRSYM    DATA     BIT       T2R
      000000C1H   SFRSYM    DATA     BYTE      WDT_CONTR
      00000088H.6 SFRSYM    DATA     BIT       TR1
      00000088H.4 SFRSYM    DATA     BIT       TR0
      000000D3H   SFRSYM    DATA     BYTE      T4L
      000000D5H   SFRSYM    DATA     BYTE      T3L
      000000D7H   SFRSYM    DATA     BYTE      T2L
      0000008BH   SFRSYM    DATA     BYTE      TL1
      0000008AH   SFRSYM    DATA     BYTE      TL0
      000000D2H   SFRSYM    DATA     BYTE      T4H
      000000D4H   SFRSYM    DATA     BYTE      T3H
      000000D6H   SFRSYM    DATA     BYTE      T2H
      0000008DH   SFRSYM    DATA     BYTE      TH1
      0000008CH   SFRSYM    DATA     BYTE      TH0
      000000DFH   SFRSYM    DATA     BYTE      IP3
      000000F4H   SFRSYM    DATA     BYTE      USBCON
      000000B5H   SFRSYM    DATA     BYTE      IP2
      000000FFH   SFRSYM    DATA     BYTE      RSTCFG
      000000C7H   SFRSYM    DATA     BYTE      IAP_CONTR
      000000F9H   SFRSYM    DATA     BYTE      LINICR
      0000008EH   SFRSYM    DATA     BYTE      AUXR
      000000AFH   SFRSYM    DATA     BYTE      IE2
      00000088H   SFRSYM    DATA     BYTE      TCON
      00000089H   SFRSYM    DATA     BYTE      TMOD
      00000098H   SFRSYM    DATA     BYTE      SCON
      000000DDH.4 SFRSYM    DATA     BIT       T4CLKO
      000000DDH.0 SFRSYM    DATA     BIT       T3CLKO
L251 LINKER/LOCATER V4.66.93.0                                                        11/26/2024  21:46:51  PAGE 66


      000000F1H   SFRSYM    DATA     BYTE      CANICR
      00000087H   SFRSYM    DATA     BYTE      PCON
      0000008FH.2 SFRSYM    DATA     BIT       T2CLKO
      000000BCH   SFRSYM    DATA     BYTE      ADC_CONTR
      0000008FH.1 SFRSYM    DATA     BIT       T1CLKO
      0000008FH.0 SFRSYM    DATA     BIT       T0CLKO
      000000E7H   SFRSYM    DATA     BYTE      CMPCR2
      000000E6H   SFRSYM    DATA     BYTE      CMPCR1
      000000DEH   SFRSYM    DATA     BYTE      ADCCFG
      000000B8H   SFRSYM    DATA     BYTE      IP
      0000008FH   SFRSYM    DATA     BYTE      INTCLKO
      000000EEH   SFRSYM    DATA     BYTE      IP3H
      000000B6H   SFRSYM    DATA     BYTE      IP2H
      000000A8H   SFRSYM    DATA     BYTE      IE
      000000BBH   SFRSYM    DATA     BYTE      P_SW3
      000000BAH   SFRSYM    DATA     BYTE      P_SW2
      000000A2H   SFRSYM    DATA     BYTE      P_SW1
      000000CEH   SFRSYM    DATA     BYTE      SPCTL
      000000F8H   SFRSYM    DATA     BYTE      P7
      000000E8H   SFRSYM    DATA     BYTE      P6
      000000C8H   SFRSYM    DATA     BYTE      P5
      000000C0H   SFRSYM    DATA     BYTE      P4
      000000B0H   SFRSYM    DATA     BYTE      P3
      000000A0H   SFRSYM    DATA     BYTE      P2
      00000090H   SFRSYM    DATA     BYTE      P1
      00000080H   SFRSYM    DATA     BYTE      P0
      000000DDH.6 SFRSYM    DATA     BIT       T4_CT
      000000DDH.2 SFRSYM    DATA     BIT       T3_CT

      00FF12C4H   BLOCK     CODE     ---       LVL=0
      R7          REGSYM    ---      BYTE      TIM
      REG=7       REGSYM    ---      ---       TIMx
      00FF12C4H   LINE      CODE     ---       #23
      00FF12C8H   LINE      CODE     ---       #25
      00FF12CCH   LINE      CODE     ---       #27
      00FF12CEH   LINE      CODE     ---       #28
      00FF12D9H   LINE      CODE     ---       #29
      00FF12E1H   LINE      CODE     ---       #30
      00FF12EDH   LINE      CODE     ---       #31
      00FF130AH   LINE      CODE     ---       #32
      00FF1314H   LINE      CODE     ---       #33
      00FF1320H   LINE      CODE     ---       #34
      00FF132FH   LINE      CODE     ---       #35
      00FF133BH   LINE      CODE     ---       #36
      00FF133DH   LINE      CODE     ---       #37
      00FF133DH   LINE      CODE     ---       #39
      00FF1341H   LINE      CODE     ---       #41
      00FF1343H   LINE      CODE     ---       #42
      00FF134EH   LINE      CODE     ---       #43
      00FF135DH   LINE      CODE     ---       #44
      00FF1369H   LINE      CODE     ---       #45
      00FF1386H   LINE      CODE     ---       #46
      00FF1390H   LINE      CODE     ---       #47
      00FF139CH   LINE      CODE     ---       #48
      00FF13ABH   LINE      CODE     ---       #49
      00FF13B7H   LINE      CODE     ---       #50
      00FF13B9H   LINE      CODE     ---       #51
      00FF13B9H   LINE      CODE     ---       #53
      00FF13BDH   LINE      CODE     ---       #55
      00FF13C0H   LINE      CODE     ---       #56
      00FF13DBH   LINE      CODE     ---       #57
      00FF13E5H   LINE      CODE     ---       #59
      00FF13F1H   LINE      CODE     ---       #60
      00FF1400H   LINE      CODE     ---       #61
      00FF140EH   LINE      CODE     ---       #62
L251 LINKER/LOCATER V4.66.93.0                                                        11/26/2024  21:46:51  PAGE 67


      00FF1410H   LINE      CODE     ---       #63
      00FF1410H   LINE      CODE     ---       #65
      00FF1414H   LINE      CODE     ---       #67
      00FF1417H   LINE      CODE     ---       #68
      00FF1423H   LINE      CODE     ---       #69
      00FF1440H   LINE      CODE     ---       #70
      00FF144AH   LINE      CODE     ---       #72
      00FF1456H   LINE      CODE     ---       #73
      00FF1465H   LINE      CODE     ---       #74
      00FF1473H   LINE      CODE     ---       #75
      00FF1475H   LINE      CODE     ---       #76
      00FF1475H   LINE      CODE     ---       #78
      00FF1479H   LINE      CODE     ---       #80
      00FF147CH   LINE      CODE     ---       #81
      00FF1488H   LINE      CODE     ---       #82
      00FF14A5H   LINE      CODE     ---       #83
      00FF14AFH   LINE      CODE     ---       #85
      00FF14BBH   LINE      CODE     ---       #86
      00FF14CAH   LINE      CODE     ---       #87
      00FF14D8H   LINE      CODE     ---       #88
      00FF14DAH   LINE      CODE     ---       #89
      00FF14DAH   LINE      CODE     ---       #90
      00FF14DCH   LINE      CODE     ---       #91
      ---         BLOCKEND  ---      ---       LVL=0

      ---         MODULE    ---      ---       STC32G_UART
      00FF0C52H   PUBLIC    CODE     ---       UART_Configuration
      00FF00AEH   PUBLIC    CODE     ---       TX1_write2buff
      00FF25C0H   PUBLIC    CODE     ---       putchar
      00000026H   PUBLIC    EDATA    ---       COM1
      0000002BH   PUBLIC    EDATA    ---       COM2
      00000030H   PUBLIC    EDATA    ---       COM3
      00000035H   PUBLIC    EDATA    ---       COM4
      0000003AH   PUBLIC    EDATA    ---       RX1_Buffer
      000000BAH   PUBLIC    EDATA    ---       RX2_Buffer
      0000013AH   PUBLIC    EDATA    ---       RX3_Buffer
      0000017AH   PUBLIC    EDATA    ---       TX1_Buffer
      000001FAH   PUBLIC    EDATA    ---       RX4_Buffer
      0000023AH   PUBLIC    EDATA    ---       TX2_Buffer
      000002BAH   PUBLIC    EDATA    ---       TX3_Buffer
      000002FAH   PUBLIC    EDATA    ---       TX4_Buffer
      0000008EH.3 SFRSYM    DATA     BIT       T2_CT
      00000089H.6 SFRSYM    DATA     BIT       T1_CT
      000000D0H   SFRSYM    DATA     BYTE      PSW
      0000009DH   SFRSYM    DATA     BYTE      IRCBAND
      00000097H   SFRSYM    DATA     BYTE      AUXR2
      0000008EH.0 SFRSYM    DATA     BIT       S1BRT
      000000FDH.4 SFRSYM    DATA     BIT       S4REN
      000000ACH.4 SFRSYM    DATA     BIT       S3REN
      0000009AH.4 SFRSYM    DATA     BIT       S2REN
      000000EFH   SFRSYM    DATA     BYTE      AUXINTIF
      000000FDH   SFRSYM    DATA     BYTE      S4CON
      000000ACH   SFRSYM    DATA     BYTE      S3CON
      0000009AH   SFRSYM    DATA     BYTE      S2CON
      00000098H.4 SFRSYM    DATA     BIT       REN
      000000FEH   SFRSYM    DATA     BYTE      S4BUF
      000000ADH   SFRSYM    DATA     BYTE      S3BUF
      000000DDH.5 SFRSYM    DATA     BIT       T4x12
      0000009BH   SFRSYM    DATA     BYTE      S2BUF
      000000DDH.1 SFRSYM    DATA     BIT       T3x12
      000000FDH.6 SFRSYM    DATA     BIT       S4ST4
      0000008EH.2 SFRSYM    DATA     BIT       T2x12
      0000008EH.6 SFRSYM    DATA     BIT       T1x12
      000000ACH.6 SFRSYM    DATA     BIT       S3ST3
      000000B7H   SFRSYM    DATA     BYTE      IPH
L251 LINKER/LOCATER V4.66.93.0                                                        11/26/2024  21:46:51  PAGE 68


      000000CDH   SFRSYM    DATA     BYTE      SPSTAT
      000000DDH   SFRSYM    DATA     BYTE      T4T3M
      000000DDH.7 SFRSYM    DATA     BIT       T4R
      000000DDH.3 SFRSYM    DATA     BIT       T3R
      0000008EH.4 SFRSYM    DATA     BIT       T2R
      000000C1H   SFRSYM    DATA     BYTE      WDT_CONTR
      000000FDH.7 SFRSYM    DATA     BIT       S4SM0
      00000088H.6 SFRSYM    DATA     BIT       TR1
      000000ACH.7 SFRSYM    DATA     BIT       S3SM0
      000000D3H   SFRSYM    DATA     BYTE      T4L
      000000D5H   SFRSYM    DATA     BYTE      T3L
      000000D7H   SFRSYM    DATA     BYTE      T2L
      0000008BH   SFRSYM    DATA     BYTE      TL1
      000000D2H   SFRSYM    DATA     BYTE      T4H
      000000D4H   SFRSYM    DATA     BYTE      T3H
      000000D6H   SFRSYM    DATA     BYTE      T2H
      0000008DH   SFRSYM    DATA     BYTE      TH1
      000000DFH   SFRSYM    DATA     BYTE      IP3
      000000F4H   SFRSYM    DATA     BYTE      USBCON
      000000B5H   SFRSYM    DATA     BYTE      IP2
      000000FFH   SFRSYM    DATA     BYTE      RSTCFG
      000000C7H   SFRSYM    DATA     BYTE      IAP_CONTR
      000000F9H   SFRSYM    DATA     BYTE      LINICR
      0000008EH   SFRSYM    DATA     BYTE      AUXR
      000000AFH   SFRSYM    DATA     BYTE      IE2
      00000088H   SFRSYM    DATA     BYTE      TCON
      00000089H   SFRSYM    DATA     BYTE      TMOD
      00000087H.7 SFRSYM    DATA     BIT       SMOD
      00000098H   SFRSYM    DATA     BYTE      SCON
      000000F1H   SFRSYM    DATA     BYTE      CANICR
      00000087H   SFRSYM    DATA     BYTE      PCON
      0000008EH.5 SFRSYM    DATA     BIT       S1M0x6
      00000099H   SFRSYM    DATA     BYTE      SBUF
      000000BCH   SFRSYM    DATA     BYTE      ADC_CONTR
      000000E7H   SFRSYM    DATA     BYTE      CMPCR2
      000000E6H   SFRSYM    DATA     BYTE      CMPCR1
      000000DEH   SFRSYM    DATA     BYTE      ADCCFG
      000000B8H   SFRSYM    DATA     BYTE      IP
      0000008FH   SFRSYM    DATA     BYTE      INTCLKO
      000000EEH   SFRSYM    DATA     BYTE      IP3H
      000000B6H   SFRSYM    DATA     BYTE      IP2H
      000000A8H   SFRSYM    DATA     BYTE      IE
      000000BBH   SFRSYM    DATA     BYTE      P_SW3
      000000BAH   SFRSYM    DATA     BYTE      P_SW2
      000000A2H   SFRSYM    DATA     BYTE      P_SW1
      000000CEH   SFRSYM    DATA     BYTE      SPCTL
      000000F8H   SFRSYM    DATA     BYTE      P7
      000000E8H   SFRSYM    DATA     BYTE      P6
      000000C8H   SFRSYM    DATA     BYTE      P5
      000000C0H   SFRSYM    DATA     BYTE      P4
      000000B0H   SFRSYM    DATA     BYTE      P3
      000000A0H   SFRSYM    DATA     BYTE      P2
      00000090H   SFRSYM    DATA     BYTE      P1
      00000080H   SFRSYM    DATA     BYTE      P0
      000000DDH.6 SFRSYM    DATA     BIT       T4_CT
      000000DDH.2 SFRSYM    DATA     BIT       T3_CT

      00FF0C52H   BLOCK     CODE     ---       LVL=0
      R10         REGSYM    ---      BYTE      UARTx
      REG=7       REGSYM    ---      ---       COMx
      00FF0C58H   BLOCK     CODE     NEAR LAB  LVL=1
      WR26        REGSYM    ---      WORD      i
      DR20        REGSYM    ---      DWORD     j
      ---         BLOCKEND  ---      ---       LVL=1
      00FF0C52H   LINE      CODE     ---       #48
L251 LINKER/LOCATER V4.66.93.0                                                        11/26/2024  21:46:51  PAGE 69


      00FF0C58H   LINE      CODE     ---       #49
      00FF0C58H   LINE      CODE     ---       #59
      00FF0C60H   LINE      CODE     ---       #61
      00FF0C65H   LINE      CODE     ---       #62
      00FF0C69H   LINE      CODE     ---       #63
      00FF0C6DH   LINE      CODE     ---       #64
      00FF0C71H   LINE      CODE     ---       #65
      00FF0C75H   LINE      CODE     ---       #67
      00FF0C84H   LINE      CODE     ---       #68
      00FF0C93H   LINE      CODE     ---       #70
      00FF0C9EH   LINE      CODE     ---       #71
      00FF0CA8H   LINE      CODE     ---       #73
      00FF0CBDH   LINE      CODE     ---       #74
      00FF0CCCH   LINE      CODE     ---       #75
      00FF0CD0H   LINE      CODE     ---       #76
      00FF0CD7H   LINE      CODE     ---       #78
      00FF0CDAH   LINE      CODE     ---       #79
      00FF0CDDH   LINE      CODE     ---       #80
      00FF0CE0H   LINE      CODE     ---       #81
      00FF0CE3H   LINE      CODE     ---       #82
      00FF0CE9H   LINE      CODE     ---       #83
      00FF0CEFH   LINE      CODE     ---       #84
      00FF0CF2H   LINE      CODE     ---       #85
      00FF0CF4H   LINE      CODE     ---       #88
      00FF0CF6H   LINE      CODE     ---       #89
      00FF0CF9H   LINE      CODE     ---       #90
      00FF0CFCH   LINE      CODE     ---       #91
      00FF0CFFH   LINE      CODE     ---       #92
      00FF0D02H   LINE      CODE     ---       #93
      00FF0D08H   LINE      CODE     ---       #94
      00FF0D0EH   LINE      CODE     ---       #95
      00FF0D10H   LINE      CODE     ---       #96
      00FF0D10H   LINE      CODE     ---       #97
      00FF0D12H   LINE      CODE     ---       #98
      00FF0D16H   LINE      CODE     ---       #100
      00FF0D22H   LINE      CODE     ---       #101
      00FF0D25H   LINE      CODE     ---       #102
      00FF0D27H   LINE      CODE     ---       #103
      00FF0D2CH   LINE      CODE     ---       #105
      00FF0D38H   LINE      CODE     ---       #106
      00FF0D3BH   LINE      CODE     ---       #107
      00FF0D3BH   LINE      CODE     ---       #108
      00FF0D47H   LINE      CODE     ---       #110
      00FF0D4BH   LINE      CODE     ---       #111
      00FF0D4BH   LINE      CODE     ---       #114
      00FF0D53H   LINE      CODE     ---       #116
      00FF0D58H   LINE      CODE     ---       #117
      00FF0D5CH   LINE      CODE     ---       #118
      00FF0D60H   LINE      CODE     ---       #119
      00FF0D64H   LINE      CODE     ---       #120
      00FF0D68H   LINE      CODE     ---       #122
      00FF0D77H   LINE      CODE     ---       #123
      00FF0D86H   LINE      CODE     ---       #125
      00FF0D91H   LINE      CODE     ---       #126
      00FF0D9BH   LINE      CODE     ---       #128
      00FF0DB0H   LINE      CODE     ---       #129
      00FF0DBFH   LINE      CODE     ---       #130
      00FF0DC1H   LINE      CODE     ---       #131
      00FF0DC4H   LINE      CODE     ---       #132
      00FF0DC7H   LINE      CODE     ---       #133
      00FF0DCAH   LINE      CODE     ---       #134
      00FF0DCEH   LINE      CODE     ---       #135
      00FF0DD2H   LINE      CODE     ---       #136
      00FF0DD5H   LINE      CODE     ---       #137
      00FF0DD7H   LINE      CODE     ---       #138
L251 LINKER/LOCATER V4.66.93.0                                                        11/26/2024  21:46:51  PAGE 70


      00FF0DDCH   LINE      CODE     ---       #139
      00FF0DEAH   LINE      CODE     ---       #141
      00FF0DEEH   LINE      CODE     ---       #142
      00FF0DEEH   LINE      CODE     ---       #145
      00FF0DF6H   LINE      CODE     ---       #147
      00FF0DFBH   LINE      CODE     ---       #148
      00FF0DFFH   LINE      CODE     ---       #149
      00FF0E03H   LINE      CODE     ---       #150
      00FF0E07H   LINE      CODE     ---       #151
      00FF0E0BH   LINE      CODE     ---       #152
      00FF0E1AH   LINE      CODE     ---       #153
      00FF0E29H   LINE      CODE     ---       #155
      00FF0E34H   LINE      CODE     ---       #157
      00FF0E3CH   LINE      CODE     ---       #158
      00FF0E3FH   LINE      CODE     ---       #159
      00FF0E54H   LINE      CODE     ---       #160
      00FF0E63H   LINE      CODE     ---       #161
      00FF0E67H   LINE      CODE     ---       #162
      00FF0E6EH   LINE      CODE     ---       #164
      00FF0E71H   LINE      CODE     ---       #165
      00FF0E74H   LINE      CODE     ---       #166
      00FF0E77H   LINE      CODE     ---       #167
      00FF0E7AH   LINE      CODE     ---       #168
      00FF0E80H   LINE      CODE     ---       #169
      00FF0E86H   LINE      CODE     ---       #170
      00FF0E89H   LINE      CODE     ---       #171
      00FF0E8BH   LINE      CODE     ---       #174
      00FF0E8EH   LINE      CODE     ---       #175
      00FF0E91H   LINE      CODE     ---       #176
      00FF0E97H   LINE      CODE     ---       #177
      00FF0E9DH   LINE      CODE     ---       #178
      00FF0EA0H   LINE      CODE     ---       #179
      00FF0EA3H   LINE      CODE     ---       #180
      00FF0EA6H   LINE      CODE     ---       #181
      00FF0EA6H   LINE      CODE     ---       #182
      00FF0EA8H   LINE      CODE     ---       #183
      00FF0EADH   LINE      CODE     ---       #184
      00FF0EBBH   LINE      CODE     ---       #186
      00FF0EBFH   LINE      CODE     ---       #187
      00FF0EBFH   LINE      CODE     ---       #190
      00FF0EC7H   LINE      CODE     ---       #192
      00FF0ECCH   LINE      CODE     ---       #193
      00FF0ED0H   LINE      CODE     ---       #194
      00FF0ED4H   LINE      CODE     ---       #195
      00FF0ED8H   LINE      CODE     ---       #196
      00FF0EDCH   LINE      CODE     ---       #197
      00FF0EEBH   LINE      CODE     ---       #198
      00FF0EFAH   LINE      CODE     ---       #200
      00FF0F05H   LINE      CODE     ---       #202
      00FF0F0DH   LINE      CODE     ---       #203
      00FF0F10H   LINE      CODE     ---       #204
      00FF0F25H   LINE      CODE     ---       #205
      00FF0F33H   LINE      CODE     ---       #206
      00FF0F37H   LINE      CODE     ---       #207
      00FF0F3EH   LINE      CODE     ---       #209
      00FF0F41H   LINE      CODE     ---       #210
      00FF0F44H   LINE      CODE     ---       #211
      00FF0F47H   LINE      CODE     ---       #212
      00FF0F4AH   LINE      CODE     ---       #213
      00FF0F50H   LINE      CODE     ---       #214
      00FF0F56H   LINE      CODE     ---       #215
      00FF0F59H   LINE      CODE     ---       #216
      00FF0F5BH   LINE      CODE     ---       #219
      00FF0F5EH   LINE      CODE     ---       #220
      00FF0F61H   LINE      CODE     ---       #221
L251 LINKER/LOCATER V4.66.93.0                                                        11/26/2024  21:46:51  PAGE 71


      00FF0F67H   LINE      CODE     ---       #222
      00FF0F6DH   LINE      CODE     ---       #223
      00FF0F70H   LINE      CODE     ---       #224
      00FF0F73H   LINE      CODE     ---       #225
      00FF0F76H   LINE      CODE     ---       #226
      00FF0F76H   LINE      CODE     ---       #227
      00FF0F78H   LINE      CODE     ---       #228
      00FF0F7CH   LINE      CODE     ---       #229
      00FF0F8AH   LINE      CODE     ---       #231
      00FF0F8DH   LINE      CODE     ---       #232
      00FF0F8DH   LINE      CODE     ---       #234
      00FF0F8FH   LINE      CODE     ---       #235
      ---         BLOCKEND  ---      ---       LVL=0

      00FF00AEH   BLOCK     CODE     ---       LVL=0
      R11         REGSYM    ---      BYTE      dat
      00FF00AEH   LINE      CODE     ---       #241
      00FF00AEH   LINE      CODE     ---       #254
      00FF00B1H   LINE      CODE     ---       #255
      00FF00B7H   LINE      CODE     ---       #256
      00FF00BDH   LINE      CODE     ---       #258
      ---         BLOCKEND  ---      ---       LVL=0
      REG=3       REGSYM    ---      ---       puts
      R11         REGSYM    ---      BYTE      dat
      REG=3       REGSYM    ---      ---       puts
      R11         REGSYM    ---      BYTE      dat
      REG=3       REGSYM    ---      ---       puts
      R11         REGSYM    ---      BYTE      dat
      REG=3       REGSYM    ---      ---       puts

      00FF25C0H   BLOCK     CODE     ---       LVL=0
      R15         REGSYM    ---      CHAR      c
      00FF25C0H   LINE      CODE     ---       #370
      00FF25C4H   LINE      CODE     ---       #372
      00FF25C7H   LINE      CODE     ---       #373
      00FF25C9H   LINE      CODE     ---       #374
      ---         BLOCKEND  ---      ---       LVL=0

      ---         MODULE    ---      ---       STC32G_WDT
      000000D0H   SFRSYM    DATA     BYTE      PSW
      0000009DH   SFRSYM    DATA     BYTE      IRCBAND
      00000097H   SFRSYM    DATA     BYTE      AUXR2
      000000EFH   SFRSYM    DATA     BYTE      AUXINTIF
      000000FDH   SFRSYM    DATA     BYTE      S4CON
      000000ACH   SFRSYM    DATA     BYTE      S3CON
      0000009AH   SFRSYM    DATA     BYTE      S2CON
      000000C1H.5 SFRSYM    DATA     BIT       EN_WDT
      000000B7H   SFRSYM    DATA     BYTE      IPH
      000000CDH   SFRSYM    DATA     BYTE      SPSTAT
      000000DDH   SFRSYM    DATA     BYTE      T4T3M
      000000C1H   SFRSYM    DATA     BYTE      WDT_CONTR
      000000DFH   SFRSYM    DATA     BYTE      IP3
      000000F4H   SFRSYM    DATA     BYTE      USBCON
      000000B5H   SFRSYM    DATA     BYTE      IP2
      000000FFH   SFRSYM    DATA     BYTE      RSTCFG
      000000C7H   SFRSYM    DATA     BYTE      IAP_CONTR
      000000F9H   SFRSYM    DATA     BYTE      LINICR
      0000008EH   SFRSYM    DATA     BYTE      AUXR
      000000AFH   SFRSYM    DATA     BYTE      IE2
      00000088H   SFRSYM    DATA     BYTE      TCON
      00000089H   SFRSYM    DATA     BYTE      TMOD
      00000098H   SFRSYM    DATA     BYTE      SCON
      000000C1H.4 SFRSYM    DATA     BIT       CLR_WDT
      000000F1H   SFRSYM    DATA     BYTE      CANICR
      00000087H   SFRSYM    DATA     BYTE      PCON
L251 LINKER/LOCATER V4.66.93.0                                                        11/26/2024  21:46:51  PAGE 72


      000000BCH   SFRSYM    DATA     BYTE      ADC_CONTR
      000000C1H.3 SFRSYM    DATA     BIT       IDL_WDT
      000000E7H   SFRSYM    DATA     BYTE      CMPCR2
      000000E6H   SFRSYM    DATA     BYTE      CMPCR1
      000000DEH   SFRSYM    DATA     BYTE      ADCCFG
      000000B8H   SFRSYM    DATA     BYTE      IP
      0000008FH   SFRSYM    DATA     BYTE      INTCLKO
      000000EEH   SFRSYM    DATA     BYTE      IP3H
      000000B6H   SFRSYM    DATA     BYTE      IP2H
      000000A8H   SFRSYM    DATA     BYTE      IE
      000000BBH   SFRSYM    DATA     BYTE      P_SW3
      000000BAH   SFRSYM    DATA     BYTE      P_SW2
      000000A2H   SFRSYM    DATA     BYTE      P_SW1
      000000CEH   SFRSYM    DATA     BYTE      SPCTL
      000000F8H   SFRSYM    DATA     BYTE      P7
      000000E8H   SFRSYM    DATA     BYTE      P6
      000000C8H   SFRSYM    DATA     BYTE      P5
      000000C0H   SFRSYM    DATA     BYTE      P4
      000000B0H   SFRSYM    DATA     BYTE      P3
      000000A0H   SFRSYM    DATA     BYTE      P2
      00000090H   SFRSYM    DATA     BYTE      P1
      00000080H   SFRSYM    DATA     BYTE      P0
      REG=0       REGSYM    ---      ---       WDT

      ---         MODULE    ---      ---       STC32G_DMA
      000000D0H   SFRSYM    DATA     BYTE      PSW
      0000009DH   SFRSYM    DATA     BYTE      IRCBAND
      00000097H   SFRSYM    DATA     BYTE      AUXR2
      000000EFH   SFRSYM    DATA     BYTE      AUXINTIF
      000000FDH   SFRSYM    DATA     BYTE      S4CON
      000000ACH   SFRSYM    DATA     BYTE      S3CON
      0000009AH   SFRSYM    DATA     BYTE      S2CON
      000000B7H   SFRSYM    DATA     BYTE      IPH
      000000CDH   SFRSYM    DATA     BYTE      SPSTAT
      000000DDH   SFRSYM    DATA     BYTE      T4T3M
      000000C1H   SFRSYM    DATA     BYTE      WDT_CONTR
      000000DFH   SFRSYM    DATA     BYTE      IP3
      000000F4H   SFRSYM    DATA     BYTE      USBCON
      000000B5H   SFRSYM    DATA     BYTE      IP2
      000000FFH   SFRSYM    DATA     BYTE      RSTCFG
      000000C7H   SFRSYM    DATA     BYTE      IAP_CONTR
      000000F9H   SFRSYM    DATA     BYTE      LINICR
      0000008EH   SFRSYM    DATA     BYTE      AUXR
      000000AFH   SFRSYM    DATA     BYTE      IE2
      00000088H   SFRSYM    DATA     BYTE      TCON
      00000089H   SFRSYM    DATA     BYTE      TMOD
      00000098H   SFRSYM    DATA     BYTE      SCON
      000000F1H   SFRSYM    DATA     BYTE      CANICR
      00000087H   SFRSYM    DATA     BYTE      PCON
      000000BCH   SFRSYM    DATA     BYTE      ADC_CONTR
      000000E7H   SFRSYM    DATA     BYTE      CMPCR2
      000000E6H   SFRSYM    DATA     BYTE      CMPCR1
      000000DEH   SFRSYM    DATA     BYTE      ADCCFG
      000000B8H   SFRSYM    DATA     BYTE      IP
      0000008FH   SFRSYM    DATA     BYTE      INTCLKO
      000000EEH   SFRSYM    DATA     BYTE      IP3H
      000000B6H   SFRSYM    DATA     BYTE      IP2H
      000000A8H   SFRSYM    DATA     BYTE      IE
      000000BBH   SFRSYM    DATA     BYTE      P_SW3
      000000BAH   SFRSYM    DATA     BYTE      P_SW2
      000000A2H   SFRSYM    DATA     BYTE      P_SW1
      000000CEH   SFRSYM    DATA     BYTE      SPCTL
      000000F8H   SFRSYM    DATA     BYTE      P7
      000000E8H   SFRSYM    DATA     BYTE      P6
      000000C8H   SFRSYM    DATA     BYTE      P5
L251 LINKER/LOCATER V4.66.93.0                                                        11/26/2024  21:46:51  PAGE 73


      000000C0H   SFRSYM    DATA     BYTE      P4
      000000B0H   SFRSYM    DATA     BYTE      P3
      000000A0H   SFRSYM    DATA     BYTE      P2
      00000090H   SFRSYM    DATA     BYTE      P1
      00000080H   SFRSYM    DATA     BYTE      P0
      REG=7       REGSYM    ---      ---       DMA
      REG=7       REGSYM    ---      ---       DMA
      REG=7       REGSYM    ---      ---       DMA
      R10         REGSYM    ---      BYTE      UARTx
      REG=7       REGSYM    ---      ---       DMA
      REG=7       REGSYM    ---      ---       DMA
      REG=7       REGSYM    ---      ---       DMA

      ---         MODULE    ---      ---       STC32G_PWM
      000000D0H   SFRSYM    DATA     BYTE      PSW
      0000009DH   SFRSYM    DATA     BYTE      IRCBAND
      00000097H   SFRSYM    DATA     BYTE      AUXR2
      000000EFH   SFRSYM    DATA     BYTE      AUXINTIF
      000000FDH   SFRSYM    DATA     BYTE      S4CON
      000000ACH   SFRSYM    DATA     BYTE      S3CON
      0000009AH   SFRSYM    DATA     BYTE      S2CON
      000000B7H   SFRSYM    DATA     BYTE      IPH
      000000CDH   SFRSYM    DATA     BYTE      SPSTAT
      000000DDH   SFRSYM    DATA     BYTE      T4T3M
      000000C1H   SFRSYM    DATA     BYTE      WDT_CONTR
      000000DFH   SFRSYM    DATA     BYTE      IP3
      000000F4H   SFRSYM    DATA     BYTE      USBCON
      000000B5H   SFRSYM    DATA     BYTE      IP2
      000000FFH   SFRSYM    DATA     BYTE      RSTCFG
      000000C7H   SFRSYM    DATA     BYTE      IAP_CONTR
      000000F9H   SFRSYM    DATA     BYTE      LINICR
      0000008EH   SFRSYM    DATA     BYTE      AUXR
      000000AFH   SFRSYM    DATA     BYTE      IE2
      00000088H   SFRSYM    DATA     BYTE      TCON
      00000089H   SFRSYM    DATA     BYTE      TMOD
      00000098H   SFRSYM    DATA     BYTE      SCON
      000000F1H   SFRSYM    DATA     BYTE      CANICR
      00000087H   SFRSYM    DATA     BYTE      PCON
      000000BCH   SFRSYM    DATA     BYTE      ADC_CONTR
      000000E7H   SFRSYM    DATA     BYTE      CMPCR2
      000000E6H   SFRSYM    DATA     BYTE      CMPCR1
      000000DEH   SFRSYM    DATA     BYTE      ADCCFG
      000000B8H   SFRSYM    DATA     BYTE      IP
      0000008FH   SFRSYM    DATA     BYTE      INTCLKO
      000000EEH   SFRSYM    DATA     BYTE      IP3H
      000000B6H   SFRSYM    DATA     BYTE      IP2H
      000000A8H   SFRSYM    DATA     BYTE      IE
      000000BBH   SFRSYM    DATA     BYTE      P_SW3
      000000BAH   SFRSYM    DATA     BYTE      P_SW2
      000000A2H   SFRSYM    DATA     BYTE      P_SW1
      000000CEH   SFRSYM    DATA     BYTE      SPCTL
      000000F8H   SFRSYM    DATA     BYTE      P7
      000000E8H   SFRSYM    DATA     BYTE      P6
      000000C8H   SFRSYM    DATA     BYTE      P5
      000000C0H   SFRSYM    DATA     BYTE      P4
      000000B0H   SFRSYM    DATA     BYTE      P3
      000000A0H   SFRSYM    DATA     BYTE      P2
      00000090H   SFRSYM    DATA     BYTE      P1
      00000080H   SFRSYM    DATA     BYTE      P0
      R7          REGSYM    ---      BYTE      PWM
      REG=7       REGSYM    ---      ---       PWMx
      R11         REGSYM    ---      BYTE      PWM
      REG=7       REGSYM    ---      ---       PWMx
      R10         REGSYM    ---      BYTE      addr
      R11         REGSYM    ---      BYTE      dat
L251 LINKER/LOCATER V4.66.93.0                                                        11/26/2024  21:46:51  PAGE 74


      R10         REGSYM    ---      BYTE      addr
      R11         REGSYM    ---      BYTE      dat
      R2          REGSYM    ---      BYTE      addr
      R10         REGSYM    ---      BYTE      dat
      R2          REGSYM    ---      BYTE      addr
      R10         REGSYM    ---      BYTE      dat
      R7          REGSYM    ---      BYTE      PWM
      REG=3       REGSYM    ---      ---       PWMx
      R11         REGSYM    ---      BYTE      PWM
      REG=3       REGSYM    ---      ---       PWMx

      ---         MODULE    ---      ---       STC32G_RTC
      000000D0H   SFRSYM    DATA     BYTE      PSW
      0000009DH   SFRSYM    DATA     BYTE      IRCBAND
      00000097H   SFRSYM    DATA     BYTE      AUXR2
      000000EFH   SFRSYM    DATA     BYTE      AUXINTIF
      000000FDH   SFRSYM    DATA     BYTE      S4CON
      000000ACH   SFRSYM    DATA     BYTE      S3CON
      0000009AH   SFRSYM    DATA     BYTE      S2CON
      000000B7H   SFRSYM    DATA     BYTE      IPH
      000000CDH   SFRSYM    DATA     BYTE      SPSTAT
      000000DDH   SFRSYM    DATA     BYTE      T4T3M
      000000C1H   SFRSYM    DATA     BYTE      WDT_CONTR
      000000DFH   SFRSYM    DATA     BYTE      IP3
      000000F4H   SFRSYM    DATA     BYTE      USBCON
      000000B5H   SFRSYM    DATA     BYTE      IP2
      000000FFH   SFRSYM    DATA     BYTE      RSTCFG
      000000C7H   SFRSYM    DATA     BYTE      IAP_CONTR
      000000F9H   SFRSYM    DATA     BYTE      LINICR
      0000008EH   SFRSYM    DATA     BYTE      AUXR
      000000AFH   SFRSYM    DATA     BYTE      IE2
      00000088H   SFRSYM    DATA     BYTE      TCON
      00000089H   SFRSYM    DATA     BYTE      TMOD
      00000098H   SFRSYM    DATA     BYTE      SCON
      000000F1H   SFRSYM    DATA     BYTE      CANICR
      00000087H   SFRSYM    DATA     BYTE      PCON
      000000BCH   SFRSYM    DATA     BYTE      ADC_CONTR
      000000E7H   SFRSYM    DATA     BYTE      CMPCR2
      000000E6H   SFRSYM    DATA     BYTE      CMPCR1
      000000DEH   SFRSYM    DATA     BYTE      ADCCFG
      000000B8H   SFRSYM    DATA     BYTE      IP
      0000008FH   SFRSYM    DATA     BYTE      INTCLKO
      000000EEH   SFRSYM    DATA     BYTE      IP3H
      000000B6H   SFRSYM    DATA     BYTE      IP2H
      000000A8H   SFRSYM    DATA     BYTE      IE
      000000BBH   SFRSYM    DATA     BYTE      P_SW3
      000000BAH   SFRSYM    DATA     BYTE      P_SW2
      000000A2H   SFRSYM    DATA     BYTE      P_SW1
      000000CEH   SFRSYM    DATA     BYTE      SPCTL
      000000F8H   SFRSYM    DATA     BYTE      P7
      000000E8H   SFRSYM    DATA     BYTE      P6
      000000C8H   SFRSYM    DATA     BYTE      P5
      000000C0H   SFRSYM    DATA     BYTE      P4
      000000B0H   SFRSYM    DATA     BYTE      P3
      000000A0H   SFRSYM    DATA     BYTE      P2
      00000090H   SFRSYM    DATA     BYTE      P1
      00000080H   SFRSYM    DATA     BYTE      P0
      REG=7       REGSYM    ---      ---       RTCx

      ---         MODULE    ---      ---       STC32G_CAN
      00FF002EH   PUBLIC    CODE     ---       CanReadReg
      0000033AH   PUBLIC    EDATA    ---       CAN1_Rx
      000003A2H   PUBLIC    EDATA    ---       CAN2_Rx
      0000040AH   PUBLIC    EDATA    ---       CAN1_Tx
      00000417H   PUBLIC    EDATA    ---       CAN2_Tx
L251 LINKER/LOCATER V4.66.93.0                                                        11/26/2024  21:46:51  PAGE 75


      000000D0H   SFRSYM    DATA     BYTE      PSW
      0000009DH   SFRSYM    DATA     BYTE      IRCBAND
      00000097H   SFRSYM    DATA     BYTE      AUXR2
      000000EFH   SFRSYM    DATA     BYTE      AUXINTIF
      000000FDH   SFRSYM    DATA     BYTE      S4CON
      000000ACH   SFRSYM    DATA     BYTE      S3CON
      00000097H.1 SFRSYM    DATA     BIT       CANEN
      0000009AH   SFRSYM    DATA     BYTE      S2CON
      000000B7H   SFRSYM    DATA     BYTE      IPH
      000000CDH   SFRSYM    DATA     BYTE      SPSTAT
      000000DDH   SFRSYM    DATA     BYTE      T4T3M
      000000C1H   SFRSYM    DATA     BYTE      WDT_CONTR
      000000DFH   SFRSYM    DATA     BYTE      IP3
      000000F4H   SFRSYM    DATA     BYTE      USBCON
      000000B5H   SFRSYM    DATA     BYTE      IP2
      000000FFH   SFRSYM    DATA     BYTE      RSTCFG
      000000C7H   SFRSYM    DATA     BYTE      IAP_CONTR
      000000F9H   SFRSYM    DATA     BYTE      LINICR
      0000008EH   SFRSYM    DATA     BYTE      AUXR
      000000AFH   SFRSYM    DATA     BYTE      IE2
      00000097H.3 SFRSYM    DATA     BIT       CANSEL
      00000088H   SFRSYM    DATA     BYTE      TCON
      00000089H   SFRSYM    DATA     BYTE      TMOD
      00000098H   SFRSYM    DATA     BYTE      SCON
      000000F1H   SFRSYM    DATA     BYTE      CANICR
      00000087H   SFRSYM    DATA     BYTE      PCON
      000000BCH   SFRSYM    DATA     BYTE      ADC_CONTR
      000000E7H   SFRSYM    DATA     BYTE      CMPCR2
      000000E6H   SFRSYM    DATA     BYTE      CMPCR1
      000000DEH   SFRSYM    DATA     BYTE      ADCCFG
      00000097H.2 SFRSYM    DATA     BIT       CAN2EN
      000000B8H   SFRSYM    DATA     BYTE      IP
      0000008FH   SFRSYM    DATA     BYTE      INTCLKO
      000000EEH   SFRSYM    DATA     BYTE      IP3H
      000000B6H   SFRSYM    DATA     BYTE      IP2H
      000000A8H   SFRSYM    DATA     BYTE      IE
      000000BBH   SFRSYM    DATA     BYTE      P_SW3
      000000BAH   SFRSYM    DATA     BYTE      P_SW2
      000000A2H   SFRSYM    DATA     BYTE      P_SW1
      000000CEH   SFRSYM    DATA     BYTE      SPCTL
      000000F8H   SFRSYM    DATA     BYTE      P7
      000000E8H   SFRSYM    DATA     BYTE      P6
      000000C8H   SFRSYM    DATA     BYTE      P5
      000000C0H   SFRSYM    DATA     BYTE      P4
      000000B0H   SFRSYM    DATA     BYTE      P3
      000000A0H   SFRSYM    DATA     BYTE      P2
      00000090H   SFRSYM    DATA     BYTE      P1
      00000080H   SFRSYM    DATA     BYTE      P0

      00FF002EH   BLOCK     CODE     ---       LVL=0
      R11         REGSYM    ---      BYTE      addr
      R11         REGSYM    ---      BYTE      dat
      00FF002EH   LINE      CODE     ---       #31
      00FF002EH   LINE      CODE     ---       #32
      00FF002EH   LINE      CODE     ---       #34
      00FF0039H   LINE      CODE     ---       #35
      00FF0040H   LINE      CODE     ---       #36
      00FF0040H   LINE      CODE     ---       #37
      ---         BLOCKEND  ---      ---       LVL=0
      R11         REGSYM    ---      BYTE      addr
      R2          REGSYM    ---      BYTE      dat
      R7          REGSYM    ---      BYTE      CANx
      REG=3       REGSYM    ---      ---       CAN
      REG=3       REGSYM    ---      ---       CAN
      REG=3       REGSYM    ---      ---       CAN
L251 LINKER/LOCATER V4.66.93.0                                                        11/26/2024  21:46:51  PAGE 76


      REG=3       REGSYM    ---      ---       CAN

      ---         MODULE    ---      ---       STC32G_LIN
      00FF2638H   PUBLIC    CODE     ---       LinReadReg
      000000D0H   SFRSYM    DATA     BYTE      PSW
      000000FBH   SFRSYM    DATA     BYTE      LINDR
      00000097H.0 SFRSYM    DATA     BIT       LINEN
      000000FAH   SFRSYM    DATA     BYTE      LINAR
      0000009DH   SFRSYM    DATA     BYTE      IRCBAND
      00000097H   SFRSYM    DATA     BYTE      AUXR2
      000000EFH   SFRSYM    DATA     BYTE      AUXINTIF
      000000FDH   SFRSYM    DATA     BYTE      S4CON
      000000ACH   SFRSYM    DATA     BYTE      S3CON
      0000009AH   SFRSYM    DATA     BYTE      S2CON
      000000B7H   SFRSYM    DATA     BYTE      IPH
      000000CDH   SFRSYM    DATA     BYTE      SPSTAT
      000000DDH   SFRSYM    DATA     BYTE      T4T3M
      000000C1H   SFRSYM    DATA     BYTE      WDT_CONTR
      000000DFH   SFRSYM    DATA     BYTE      IP3
      000000F4H   SFRSYM    DATA     BYTE      USBCON
      000000B5H   SFRSYM    DATA     BYTE      IP2
      000000FFH   SFRSYM    DATA     BYTE      RSTCFG
      000000C7H   SFRSYM    DATA     BYTE      IAP_CONTR
      000000F9H   SFRSYM    DATA     BYTE      LINICR
      0000008EH   SFRSYM    DATA     BYTE      AUXR
      000000AFH   SFRSYM    DATA     BYTE      IE2
      00000088H   SFRSYM    DATA     BYTE      TCON
      00000089H   SFRSYM    DATA     BYTE      TMOD
      00000098H   SFRSYM    DATA     BYTE      SCON
      000000F1H   SFRSYM    DATA     BYTE      CANICR
      00000087H   SFRSYM    DATA     BYTE      PCON
      000000BCH   SFRSYM    DATA     BYTE      ADC_CONTR
      000000E7H   SFRSYM    DATA     BYTE      CMPCR2
      000000E6H   SFRSYM    DATA     BYTE      CMPCR1
      000000DEH   SFRSYM    DATA     BYTE      ADCCFG
      000000B8H   SFRSYM    DATA     BYTE      IP
      0000008FH   SFRSYM    DATA     BYTE      INTCLKO
      000000EEH   SFRSYM    DATA     BYTE      IP3H
      000000B6H   SFRSYM    DATA     BYTE      IP2H
      000000A8H   SFRSYM    DATA     BYTE      IE
      000000BBH   SFRSYM    DATA     BYTE      P_SW3
      000000BAH   SFRSYM    DATA     BYTE      P_SW2
      000000A2H   SFRSYM    DATA     BYTE      P_SW1
      000000CEH   SFRSYM    DATA     BYTE      SPCTL
      000000F8H   SFRSYM    DATA     BYTE      P7
      000000E8H   SFRSYM    DATA     BYTE      P6
      000000C8H   SFRSYM    DATA     BYTE      P5
      000000C0H   SFRSYM    DATA     BYTE      P4
      000000B0H   SFRSYM    DATA     BYTE      P3
      000000A0H   SFRSYM    DATA     BYTE      P2
      00000090H   SFRSYM    DATA     BYTE      P1
      00000080H   SFRSYM    DATA     BYTE      P0

      00FF2638H   BLOCK     CODE     ---       LVL=0
      R11         REGSYM    ---      BYTE      addr
      R11         REGSYM    ---      BYTE      dat
      00FF2638H   LINE      CODE     ---       #24
      00FF2638H   LINE      CODE     ---       #25
      00FF2638H   LINE      CODE     ---       #27
      00FF263BH   LINE      CODE     ---       #28
      00FF263DH   LINE      CODE     ---       #29
      00FF263DH   LINE      CODE     ---       #30
      ---         BLOCKEND  ---      ---       LVL=0
      R11         REGSYM    ---      BYTE      addr
      R7          REGSYM    ---      BYTE      dat
L251 LINKER/LOCATER V4.66.93.0                                                        11/26/2024  21:46:51  PAGE 77


      REG=3       REGSYM    ---      ---       pdat
      REG=3       REGSYM    ---      ---       pdat
      R10         REGSYM    ---      BYTE      lid
      R11         REGSYM    ---      BYTE      sta
      R15         REGSYM    ---      BYTE      lsr
      REG=1       REGSYM    ---      ---       pdat
      REG=3       REGSYM    ---      ---       pdat
      R7          REGSYM    ---      BYTE      lid
      REG=3       REGSYM    ---      ---       pdat
      R7          REGSYM    ---      BYTE      lid
      REG=3       REGSYM    ---      ---       pdat
      WR6         REGSYM    ---      WORD      brt
      WR14        REGSYM    ---      WORD      tmp
      R7          REGSYM    ---      BYTE      base_ms
      R15         REGSYM    ---      BYTE      prescaler
      WR12        REGSYM    ---      WORD      tmp
      REG=3       REGSYM    ---      ---       LIN

      ---         MODULE    ---      ---       STC32G_Clock
      000000D0H   SFRSYM    DATA     BYTE      PSW
      0000009DH   SFRSYM    DATA     BYTE      IRCBAND
      00000097H   SFRSYM    DATA     BYTE      AUXR2
      000000EFH   SFRSYM    DATA     BYTE      AUXINTIF
      000000FDH   SFRSYM    DATA     BYTE      S4CON
      000000ACH   SFRSYM    DATA     BYTE      S3CON
      0000009AH   SFRSYM    DATA     BYTE      S2CON
      000000B7H   SFRSYM    DATA     BYTE      IPH
      000000CDH   SFRSYM    DATA     BYTE      SPSTAT
      000000DDH   SFRSYM    DATA     BYTE      T4T3M
      000000C1H   SFRSYM    DATA     BYTE      WDT_CONTR
      000000DFH   SFRSYM    DATA     BYTE      IP3
      000000F4H   SFRSYM    DATA     BYTE      USBCON
      000000B5H   SFRSYM    DATA     BYTE      IP2
      000000FFH   SFRSYM    DATA     BYTE      RSTCFG
      000000DCH   SFRSYM    DATA     BYTE      USBCLK
      000000C7H   SFRSYM    DATA     BYTE      IAP_CONTR
      000000F9H   SFRSYM    DATA     BYTE      LINICR
      0000008EH   SFRSYM    DATA     BYTE      AUXR
      000000AFH   SFRSYM    DATA     BYTE      IE2
      00000088H   SFRSYM    DATA     BYTE      TCON
      00000089H   SFRSYM    DATA     BYTE      TMOD
      00000098H   SFRSYM    DATA     BYTE      SCON
      000000F1H   SFRSYM    DATA     BYTE      CANICR
      00000087H   SFRSYM    DATA     BYTE      PCON
      000000BCH   SFRSYM    DATA     BYTE      ADC_CONTR
      000000E7H   SFRSYM    DATA     BYTE      CMPCR2
      000000E6H   SFRSYM    DATA     BYTE      CMPCR1
      000000DEH   SFRSYM    DATA     BYTE      ADCCFG
      000000B8H   SFRSYM    DATA     BYTE      IP
      0000008FH   SFRSYM    DATA     BYTE      INTCLKO
      000000EEH   SFRSYM    DATA     BYTE      IP3H
      000000B6H   SFRSYM    DATA     BYTE      IP2H
      000000A8H   SFRSYM    DATA     BYTE      IE
      000000BBH   SFRSYM    DATA     BYTE      P_SW3
      000000BAH   SFRSYM    DATA     BYTE      P_SW2
      000000A2H   SFRSYM    DATA     BYTE      P_SW1
      000000CEH   SFRSYM    DATA     BYTE      SPCTL
      000000F8H   SFRSYM    DATA     BYTE      P7
      000000E8H   SFRSYM    DATA     BYTE      P6
      000000C8H   SFRSYM    DATA     BYTE      P5
      000000C0H   SFRSYM    DATA     BYTE      P4
      000000B0H   SFRSYM    DATA     BYTE      P3
      000000A0H   SFRSYM    DATA     BYTE      P2
      00000090H   SFRSYM    DATA     BYTE      P1
      00000080H   SFRSYM    DATA     BYTE      P0
L251 LINKER/LOCATER V4.66.93.0                                                        11/26/2024  21:46:51  PAGE 78


      R10         REGSYM    ---      BYTE      div
      R10         REGSYM    ---      BYTE      div
      R10         REGSYM    ---      BYTE      div
      R1          REGSYM    ---      BYTE      clksrc
      R2          REGSYM    ---      BYTE      pllsel
      R15         REGSYM    ---      BYTE      div

      ---         MODULE    ---      ---       STC32G_USART_LIN
      000000D0H   SFRSYM    DATA     BYTE      PSW
      0000009DH   SFRSYM    DATA     BYTE      IRCBAND
      00000097H   SFRSYM    DATA     BYTE      AUXR2
      000000EFH   SFRSYM    DATA     BYTE      AUXINTIF
      000000FDH   SFRSYM    DATA     BYTE      S4CON
      000000ACH   SFRSYM    DATA     BYTE      S3CON
      0000009AH   SFRSYM    DATA     BYTE      S2CON
      00000098H.4 SFRSYM    DATA     BIT       REN
      0000009BH   SFRSYM    DATA     BYTE      S2BUF
      0000008EH.2 SFRSYM    DATA     BIT       T2x12
      000000B7H   SFRSYM    DATA     BYTE      IPH
      000000CDH   SFRSYM    DATA     BYTE      SPSTAT
      000000DDH   SFRSYM    DATA     BYTE      T4T3M
      0000008EH.4 SFRSYM    DATA     BIT       T2R
      000000C1H   SFRSYM    DATA     BYTE      WDT_CONTR
      000000DFH   SFRSYM    DATA     BYTE      IP3
      000000F4H   SFRSYM    DATA     BYTE      USBCON
      000000B5H   SFRSYM    DATA     BYTE      IP2
      000000FFH   SFRSYM    DATA     BYTE      RSTCFG
      000000AFH.0 SFRSYM    DATA     BIT       ES2
      000000C7H   SFRSYM    DATA     BYTE      IAP_CONTR
      000000F9H   SFRSYM    DATA     BYTE      LINICR
      0000008EH   SFRSYM    DATA     BYTE      AUXR
      000000AFH   SFRSYM    DATA     BYTE      IE2
      00000088H   SFRSYM    DATA     BYTE      TCON
      00000089H   SFRSYM    DATA     BYTE      TMOD
      00000087H.7 SFRSYM    DATA     BIT       SMOD
      00000098H   SFRSYM    DATA     BYTE      SCON
      000000F1H   SFRSYM    DATA     BYTE      CANICR
      00000087H   SFRSYM    DATA     BYTE      PCON
      00000099H   SFRSYM    DATA     BYTE      SBUF
      000000BCH   SFRSYM    DATA     BYTE      ADC_CONTR
      000000E7H   SFRSYM    DATA     BYTE      CMPCR2
      000000E6H   SFRSYM    DATA     BYTE      CMPCR1
      00000098H.1 SFRSYM    DATA     BIT       TI
      000000DEH   SFRSYM    DATA     BYTE      ADCCFG
      000000B8H   SFRSYM    DATA     BYTE      IP
      000000A8H.4 SFRSYM    DATA     BIT       ES
      0000008FH   SFRSYM    DATA     BYTE      INTCLKO
      000000EEH   SFRSYM    DATA     BYTE      IP3H
      000000B6H   SFRSYM    DATA     BYTE      IP2H
      000000A8H   SFRSYM    DATA     BYTE      IE
      000000BBH   SFRSYM    DATA     BYTE      P_SW3
      000000BAH   SFRSYM    DATA     BYTE      P_SW2
      000000A2H   SFRSYM    DATA     BYTE      P_SW1
      000000CEH   SFRSYM    DATA     BYTE      SPCTL
      000000F8H   SFRSYM    DATA     BYTE      P7
      000000E8H   SFRSYM    DATA     BYTE      P6
      000000C8H   SFRSYM    DATA     BYTE      P5
      000000C0H   SFRSYM    DATA     BYTE      P4
      000000B0H   SFRSYM    DATA     BYTE      P3
      000000A0H   SFRSYM    DATA     BYTE      P2
      00000090H   SFRSYM    DATA     BYTE      P1
      00000080H   SFRSYM    DATA     BYTE      P0
      R7          REGSYM    ---      BYTE      USARTx
      R10         REGSYM    ---      BYTE      dat
      REG=3       REGSYM    ---      ---       pdat
L251 LINKER/LOCATER V4.66.93.0                                                        11/26/2024  21:46:51  PAGE 79


      R1          REGSYM    ---      BYTE      USARTx
      REG=7       REGSYM    ---      ---       dat
      R10         REGSYM    ---      BYTE      len
      WR6         REGSYM    ---      WORD      sum
      R0          REGSYM    ---      BYTE      i
      R10         REGSYM    ---      BYTE      USARTx
      R3          REGSYM    ---      BYTE      USARTx
      R10         REGSYM    ---      BYTE      id
      R7          REGSYM    ---      BYTE      P0
      R5          REGSYM    ---      BYTE      P1
      R15         REGSYM    ---      BYTE      USARTx
      R14         REGSYM    ---      BYTE      lid
      R15         REGSYM    ---      BYTE      USARTx
      R13         REGSYM    ---      BYTE      lid
      R14         REGSYM    ---      BYTE      len
      R15         REGSYM    ---      BYTE      USARTx
      WR6         REGSYM    ---      WORD      brt
      WR2         REGSYM    ---      WORD      tmp
      R7          REGSYM    ---      BYTE      USARTx
      REG=0       REGSYM    ---      ---       USART

      ---         MODULE    ---      ---       STC32G_ADC_Isr
      00FF260EH   PUBLIC    CODE     ---       ADC_ISR_Handler
      000000D0H   SFRSYM    DATA     BYTE      PSW
      0000009DH   SFRSYM    DATA     BYTE      IRCBAND
      00000097H   SFRSYM    DATA     BYTE      AUXR2
      000000EFH   SFRSYM    DATA     BYTE      AUXINTIF
      000000FDH   SFRSYM    DATA     BYTE      S4CON
      000000ACH   SFRSYM    DATA     BYTE      S3CON
      0000009AH   SFRSYM    DATA     BYTE      S2CON
      000000B7H   SFRSYM    DATA     BYTE      IPH
      000000CDH   SFRSYM    DATA     BYTE      SPSTAT
      000000DDH   SFRSYM    DATA     BYTE      T4T3M
      000000C1H   SFRSYM    DATA     BYTE      WDT_CONTR
      000000DFH   SFRSYM    DATA     BYTE      IP3
      000000F4H   SFRSYM    DATA     BYTE      USBCON
      000000B5H   SFRSYM    DATA     BYTE      IP2
      000000FFH   SFRSYM    DATA     BYTE      RSTCFG
      000000BCH.5 SFRSYM    DATA     BIT       ADC_FLAG
      000000C7H   SFRSYM    DATA     BYTE      IAP_CONTR
      000000F9H   SFRSYM    DATA     BYTE      LINICR
      0000008EH   SFRSYM    DATA     BYTE      AUXR
      000000AFH   SFRSYM    DATA     BYTE      IE2
      00000088H   SFRSYM    DATA     BYTE      TCON
      00000089H   SFRSYM    DATA     BYTE      TMOD
      00000098H   SFRSYM    DATA     BYTE      SCON
      000000F1H   SFRSYM    DATA     BYTE      CANICR
      00000087H   SFRSYM    DATA     BYTE      PCON
      000000BCH   SFRSYM    DATA     BYTE      ADC_CONTR
      000000E7H   SFRSYM    DATA     BYTE      CMPCR2
      000000E6H   SFRSYM    DATA     BYTE      CMPCR1
      000000DEH   SFRSYM    DATA     BYTE      ADCCFG
      000000B8H   SFRSYM    DATA     BYTE      IP
      0000008FH   SFRSYM    DATA     BYTE      INTCLKO
      000000EEH   SFRSYM    DATA     BYTE      IP3H
      000000B6H   SFRSYM    DATA     BYTE      IP2H
      000000A8H   SFRSYM    DATA     BYTE      IE
      000000BBH   SFRSYM    DATA     BYTE      P_SW3
      000000BAH   SFRSYM    DATA     BYTE      P_SW2
      000000A2H   SFRSYM    DATA     BYTE      P_SW1
      000000CEH   SFRSYM    DATA     BYTE      SPCTL
      000000F8H   SFRSYM    DATA     BYTE      P7
      000000E8H   SFRSYM    DATA     BYTE      P6
      000000C8H   SFRSYM    DATA     BYTE      P5
      000000C0H   SFRSYM    DATA     BYTE      P4
L251 LINKER/LOCATER V4.66.93.0                                                        11/26/2024  21:46:51  PAGE 80


      000000B0H   SFRSYM    DATA     BYTE      P3
      000000A0H   SFRSYM    DATA     BYTE      P2
      00000090H   SFRSYM    DATA     BYTE      P1
      00000080H   SFRSYM    DATA     BYTE      P0

      00FF260EH   BLOCK     CODE     ---       LVL=0
      00FF260EH   LINE      CODE     ---       #22
      00FF2610H   LINE      CODE     ---       #24
      00FF2613H   LINE      CODE     ---       #28
      ---         BLOCKEND  ---      ---       LVL=0

      ---         MODULE    ---      ---       STC32G_Compare_Isr
      00FF25B3H   PUBLIC    CODE     ---       CMP_ISR_Handler
      000000D0H   SFRSYM    DATA     BYTE      PSW
      0000009DH   SFRSYM    DATA     BYTE      IRCBAND
      00000097H   SFRSYM    DATA     BYTE      AUXR2
      000000E6H.6 SFRSYM    DATA     BIT       CMPIF
      000000EFH   SFRSYM    DATA     BYTE      AUXINTIF
      000000FDH   SFRSYM    DATA     BYTE      S4CON
      000000ACH   SFRSYM    DATA     BYTE      S3CON
      0000009AH   SFRSYM    DATA     BYTE      S2CON
      000000B7H   SFRSYM    DATA     BYTE      IPH
      000000CDH   SFRSYM    DATA     BYTE      SPSTAT
      000000DDH   SFRSYM    DATA     BYTE      T4T3M
      000000C1H   SFRSYM    DATA     BYTE      WDT_CONTR
      000000DFH   SFRSYM    DATA     BYTE      IP3
      000000E6H.0 SFRSYM    DATA     BIT       CMPRES
      000000F4H   SFRSYM    DATA     BYTE      USBCON
      000000B5H   SFRSYM    DATA     BYTE      IP2
      000000FFH   SFRSYM    DATA     BYTE      RSTCFG
      000000C7H   SFRSYM    DATA     BYTE      IAP_CONTR
      000000F9H   SFRSYM    DATA     BYTE      LINICR
      0000008EH   SFRSYM    DATA     BYTE      AUXR
      000000AFH   SFRSYM    DATA     BYTE      IE2
      000000C0H.7 SFRSYM    DATA     BIT       P47
      00000088H   SFRSYM    DATA     BYTE      TCON
      00000089H   SFRSYM    DATA     BYTE      TMOD
      00000098H   SFRSYM    DATA     BYTE      SCON
      000000F1H   SFRSYM    DATA     BYTE      CANICR
      00000087H   SFRSYM    DATA     BYTE      PCON
      000000BCH   SFRSYM    DATA     BYTE      ADC_CONTR
      000000E7H   SFRSYM    DATA     BYTE      CMPCR2
      000000E6H   SFRSYM    DATA     BYTE      CMPCR1
      000000DEH   SFRSYM    DATA     BYTE      ADCCFG
      000000B8H   SFRSYM    DATA     BYTE      IP
      0000008FH   SFRSYM    DATA     BYTE      INTCLKO
      000000EEH   SFRSYM    DATA     BYTE      IP3H
      000000B6H   SFRSYM    DATA     BYTE      IP2H
      000000A8H   SFRSYM    DATA     BYTE      IE
      000000BBH   SFRSYM    DATA     BYTE      P_SW3
      000000BAH   SFRSYM    DATA     BYTE      P_SW2
      000000A2H   SFRSYM    DATA     BYTE      P_SW1
      000000CEH   SFRSYM    DATA     BYTE      SPCTL
      000000F8H   SFRSYM    DATA     BYTE      P7
      000000E8H   SFRSYM    DATA     BYTE      P6
      000000C8H   SFRSYM    DATA     BYTE      P5
      000000C0H   SFRSYM    DATA     BYTE      P4
      000000B0H   SFRSYM    DATA     BYTE      P3
      000000A0H   SFRSYM    DATA     BYTE      P2
      00000090H   SFRSYM    DATA     BYTE      P1
      00000080H   SFRSYM    DATA     BYTE      P0

      00FF25B3H   BLOCK     CODE     ---       LVL=0
      00FF25B3H   LINE      CODE     ---       #22
      00FF25B5H   LINE      CODE     ---       #24
L251 LINKER/LOCATER V4.66.93.0                                                        11/26/2024  21:46:51  PAGE 81


      00FF25B8H   LINE      CODE     ---       #27
      00FF25BDH   LINE      CODE     ---       #28
      ---         BLOCKEND  ---      ---       LVL=0

      ---         MODULE    ---      ---       STC32G_Exti_Isr
      00FF25D7H   PUBLIC    CODE     ---       INT0_ISR_Handler
      00FF25E2H   PUBLIC    CODE     ---       INT1_ISR_Handler
      00FF25EDH   PUBLIC    CODE     ---       INT2_ISR_Handler
      00FF25F8H   PUBLIC    CODE     ---       INT3_ISR_Handler
      00FF2603H   PUBLIC    CODE     ---       INT4_ISR_Handler
      000005B3H   PUBLIC    EDATA    BYTE      WakeUpSource
      000000D0H   SFRSYM    DATA     BYTE      PSW
      0000009DH   SFRSYM    DATA     BYTE      IRCBAND
      00000097H   SFRSYM    DATA     BYTE      AUXR2
      000000EFH   SFRSYM    DATA     BYTE      AUXINTIF
      000000FDH   SFRSYM    DATA     BYTE      S4CON
      000000ACH   SFRSYM    DATA     BYTE      S3CON
      0000009AH   SFRSYM    DATA     BYTE      S2CON
      000000B7H   SFRSYM    DATA     BYTE      IPH
      000000CDH   SFRSYM    DATA     BYTE      SPSTAT
      000000DDH   SFRSYM    DATA     BYTE      T4T3M
      000000C1H   SFRSYM    DATA     BYTE      WDT_CONTR
      000000DFH   SFRSYM    DATA     BYTE      IP3
      000000F4H   SFRSYM    DATA     BYTE      USBCON
      000000B5H   SFRSYM    DATA     BYTE      IP2
      000000FFH   SFRSYM    DATA     BYTE      RSTCFG
      000000C7H   SFRSYM    DATA     BYTE      IAP_CONTR
      000000F9H   SFRSYM    DATA     BYTE      LINICR
      0000008EH   SFRSYM    DATA     BYTE      AUXR
      000000AFH   SFRSYM    DATA     BYTE      IE2
      00000088H   SFRSYM    DATA     BYTE      TCON
      00000089H   SFRSYM    DATA     BYTE      TMOD
      00000098H   SFRSYM    DATA     BYTE      SCON
      000000F1H   SFRSYM    DATA     BYTE      CANICR
      00000087H   SFRSYM    DATA     BYTE      PCON
      000000BCH   SFRSYM    DATA     BYTE      ADC_CONTR
      000000E7H   SFRSYM    DATA     BYTE      CMPCR2
      000000E6H   SFRSYM    DATA     BYTE      CMPCR1
      000000DEH   SFRSYM    DATA     BYTE      ADCCFG
      000000B8H   SFRSYM    DATA     BYTE      IP
      0000008FH   SFRSYM    DATA     BYTE      INTCLKO
      000000EEH   SFRSYM    DATA     BYTE      IP3H
      000000B6H   SFRSYM    DATA     BYTE      IP2H
      000000A8H   SFRSYM    DATA     BYTE      IE
      000000BBH   SFRSYM    DATA     BYTE      P_SW3
      000000BAH   SFRSYM    DATA     BYTE      P_SW2
      000000A2H   SFRSYM    DATA     BYTE      P_SW1
      000000CEH   SFRSYM    DATA     BYTE      SPCTL
      000000F8H   SFRSYM    DATA     BYTE      P7
      000000E8H   SFRSYM    DATA     BYTE      P6
      000000C8H   SFRSYM    DATA     BYTE      P5
      000000C0H   SFRSYM    DATA     BYTE      P4
      000000B0H   SFRSYM    DATA     BYTE      P3
      000000A0H   SFRSYM    DATA     BYTE      P2
      00000090H   SFRSYM    DATA     BYTE      P1
      00000080H   SFRSYM    DATA     BYTE      P0

      00FF25D7H   BLOCK     CODE     ---       LVL=0
      00FF25D7H   LINE      CODE     ---       #28
      00FF25D9H   LINE      CODE     ---       #32
      00FF25DFH   LINE      CODE     ---       #33
      ---         BLOCKEND  ---      ---       LVL=0

      00FF25E2H   BLOCK     CODE     ---       LVL=0
      00FF25E2H   LINE      CODE     ---       #42
L251 LINKER/LOCATER V4.66.93.0                                                        11/26/2024  21:46:51  PAGE 82


      00FF25E4H   LINE      CODE     ---       #46
      00FF25EAH   LINE      CODE     ---       #47
      ---         BLOCKEND  ---      ---       LVL=0

      00FF25EDH   BLOCK     CODE     ---       LVL=0
      00FF25EDH   LINE      CODE     ---       #56
      00FF25EFH   LINE      CODE     ---       #60
      00FF25F5H   LINE      CODE     ---       #61
      ---         BLOCKEND  ---      ---       LVL=0

      00FF25F8H   BLOCK     CODE     ---       LVL=0
      00FF25F8H   LINE      CODE     ---       #70
      00FF25FAH   LINE      CODE     ---       #74
      00FF2600H   LINE      CODE     ---       #75
      ---         BLOCKEND  ---      ---       LVL=0

      00FF2603H   BLOCK     CODE     ---       LVL=0
      00FF2603H   LINE      CODE     ---       #84
      00FF2605H   LINE      CODE     ---       #88
      00FF260BH   LINE      CODE     ---       #89
      ---         BLOCKEND  ---      ---       LVL=0

      ---         MODULE    ---      ---       STC32G_GPIO_Isr
      000000D0H   SFRSYM    DATA     BYTE      PSW
      0000009DH   SFRSYM    DATA     BYTE      IRCBAND
      00000097H   SFRSYM    DATA     BYTE      AUXR2
      000000EFH   SFRSYM    DATA     BYTE      AUXINTIF
      000000FDH   SFRSYM    DATA     BYTE      S4CON
      000000ACH   SFRSYM    DATA     BYTE      S3CON
      0000009AH   SFRSYM    DATA     BYTE      S2CON
      000000B7H   SFRSYM    DATA     BYTE      IPH
      000000CDH   SFRSYM    DATA     BYTE      SPSTAT
      000000DDH   SFRSYM    DATA     BYTE      T4T3M
      000000C1H   SFRSYM    DATA     BYTE      WDT_CONTR
      000000DFH   SFRSYM    DATA     BYTE      IP3
      000000F4H   SFRSYM    DATA     BYTE      USBCON
      000000B5H   SFRSYM    DATA     BYTE      IP2
      000000FFH   SFRSYM    DATA     BYTE      RSTCFG
      000000C7H   SFRSYM    DATA     BYTE      IAP_CONTR
      000000F9H   SFRSYM    DATA     BYTE      LINICR
      0000008EH   SFRSYM    DATA     BYTE      AUXR
      000000AFH   SFRSYM    DATA     BYTE      IE2
      00000088H   SFRSYM    DATA     BYTE      TCON
      00000089H   SFRSYM    DATA     BYTE      TMOD
      00000098H   SFRSYM    DATA     BYTE      SCON
      000000F1H   SFRSYM    DATA     BYTE      CANICR
      00000087H   SFRSYM    DATA     BYTE      PCON
      000000BCH   SFRSYM    DATA     BYTE      ADC_CONTR
      000000E7H   SFRSYM    DATA     BYTE      CMPCR2
      000000E6H   SFRSYM    DATA     BYTE      CMPCR1
      000000DEH   SFRSYM    DATA     BYTE      ADCCFG
      000000B8H   SFRSYM    DATA     BYTE      IP
      0000008FH   SFRSYM    DATA     BYTE      INTCLKO
      000000EEH   SFRSYM    DATA     BYTE      IP3H
      000000B6H   SFRSYM    DATA     BYTE      IP2H
      000000A8H   SFRSYM    DATA     BYTE      IE
      000000BBH   SFRSYM    DATA     BYTE      P_SW3
      000000BAH   SFRSYM    DATA     BYTE      P_SW2
      000000A2H   SFRSYM    DATA     BYTE      P_SW1
      000000CEH   SFRSYM    DATA     BYTE      SPCTL
      000000F8H   SFRSYM    DATA     BYTE      P7
      000000E8H   SFRSYM    DATA     BYTE      P6
      000000C8H   SFRSYM    DATA     BYTE      P5
      000000C0H   SFRSYM    DATA     BYTE      P4
      000000B0H   SFRSYM    DATA     BYTE      P3
L251 LINKER/LOCATER V4.66.93.0                                                        11/26/2024  21:46:51  PAGE 83


      000000A0H   SFRSYM    DATA     BYTE      P2
      00000090H   SFRSYM    DATA     BYTE      P1
      00000080H   SFRSYM    DATA     BYTE      P0

      ---         MODULE    ---      ---       STC32G_I2C_Isr
      00FF195BH   PUBLIC    CODE     ---       I2C_ISR_Handler
      00000024H.7 PUBLIC    BIT      BIT       DisplayFlag
      000005ABH   PUBLIC    EDATA    ---       I2CIsr
      000000D0H   SFRSYM    DATA     BYTE      PSW
      0000009DH   SFRSYM    DATA     BYTE      IRCBAND
      00000097H   SFRSYM    DATA     BYTE      AUXR2
      000000EFH   SFRSYM    DATA     BYTE      AUXINTIF
      000000FDH   SFRSYM    DATA     BYTE      S4CON
      000000ACH   SFRSYM    DATA     BYTE      S3CON
      0000009AH   SFRSYM    DATA     BYTE      S2CON
      000000B7H   SFRSYM    DATA     BYTE      IPH
      000000CDH   SFRSYM    DATA     BYTE      SPSTAT
      000000DDH   SFRSYM    DATA     BYTE      T4T3M
      000000C1H   SFRSYM    DATA     BYTE      WDT_CONTR
      000000DFH   SFRSYM    DATA     BYTE      IP3
      000000F4H   SFRSYM    DATA     BYTE      USBCON
      000000B5H   SFRSYM    DATA     BYTE      IP2
      000000FFH   SFRSYM    DATA     BYTE      RSTCFG
      000000C7H   SFRSYM    DATA     BYTE      IAP_CONTR
      000000F9H   SFRSYM    DATA     BYTE      LINICR
      0000008EH   SFRSYM    DATA     BYTE      AUXR
      000000AFH   SFRSYM    DATA     BYTE      IE2
      00000088H   SFRSYM    DATA     BYTE      TCON
      00000089H   SFRSYM    DATA     BYTE      TMOD
      00000098H   SFRSYM    DATA     BYTE      SCON
      000000F1H   SFRSYM    DATA     BYTE      CANICR
      00000087H   SFRSYM    DATA     BYTE      PCON
      000000BCH   SFRSYM    DATA     BYTE      ADC_CONTR
      000000E7H   SFRSYM    DATA     BYTE      CMPCR2
      000000E6H   SFRSYM    DATA     BYTE      CMPCR1
      000000DEH   SFRSYM    DATA     BYTE      ADCCFG
      000000B8H   SFRSYM    DATA     BYTE      IP
      0000008FH   SFRSYM    DATA     BYTE      INTCLKO
      000000EEH   SFRSYM    DATA     BYTE      IP3H
      000000B6H   SFRSYM    DATA     BYTE      IP2H
      000000A8H   SFRSYM    DATA     BYTE      IE
      000000BBH   SFRSYM    DATA     BYTE      P_SW3
      000000BAH   SFRSYM    DATA     BYTE      P_SW2
      000000A2H   SFRSYM    DATA     BYTE      P_SW1
      000000CEH   SFRSYM    DATA     BYTE      SPCTL
      000000F8H   SFRSYM    DATA     BYTE      P7
      000000E8H   SFRSYM    DATA     BYTE      P6
      000000C8H   SFRSYM    DATA     BYTE      P5
      000000C0H   SFRSYM    DATA     BYTE      P4
      000000B0H   SFRSYM    DATA     BYTE      P3
      000000A0H   SFRSYM    DATA     BYTE      P2
      00000090H   SFRSYM    DATA     BYTE      P1
      00000080H   SFRSYM    DATA     BYTE      P0

      00FF195BH   BLOCK     CODE     ---       LVL=0
      00FF195BH   LINE      CODE     ---       #35
      00FF1963H   LINE      CODE     ---       #40
      00FF1973H   LINE      CODE     ---       #42
      00FF197DH   LINE      CODE     ---       #44
      00FF1985H   LINE      CODE     ---       #45
      00FF1985H   LINE      CODE     ---       #48
      00FF1993H   LINE      CODE     ---       #50
      00FF199BH   LINE      CODE     ---       #51
      00FF199EH   LINE      CODE     ---       #52
      00FF19A4H   LINE      CODE     ---       #54
L251 LINKER/LOCATER V4.66.93.0                                                        11/26/2024  21:46:51  PAGE 84


      00FF19ACH   LINE      CODE     ---       #55
      00FF19B2H   LINE      CODE     ---       #57
      00FF19B7H   LINE      CODE     ---       #58
      00FF19BAH   LINE      CODE     ---       #59
      00FF19C0H   LINE      CODE     ---       #61
      00FF19C5H   LINE      CODE     ---       #62
      00FF19D4H   LINE      CODE     ---       #63
      00FF19DEH   LINE      CODE     ---       #64
      00FF19E0H   LINE      CODE     ---       #67
      00FF19FCH   LINE      CODE     ---       #68
      00FF19FCH   LINE      CODE     ---       #69
      00FF19FEH   LINE      CODE     ---       #70
      00FF1A04H   LINE      CODE     ---       #72
      00FF1A0CH   LINE      CODE     ---       #73
      00FF1A12H   LINE      CODE     ---       #75
      00FF1A14H   LINE      CODE     ---       #76
      00FF1A16H   LINE      CODE     ---       #79
      00FF1A30H   LINE      CODE     ---       #80
      00FF1A30H   LINE      CODE     ---       #81
      00FF1A32H   LINE      CODE     ---       #82
      00FF1A38H   LINE      CODE     ---       #84
      00FF1A40H   LINE      CODE     ---       #85
      00FF1A46H   LINE      CODE     ---       #86
      00FF1A4AH   LINE      CODE     ---       #87
      00FF1A4CH   LINE      CODE     ---       #88
      ---         BLOCKEND  ---      ---       LVL=0

      ---         MODULE    ---      ---       STC32G_SPI_Isr
      00FF21ECH   PUBLIC    CODE     ---       SPI_ISR_Handler
      000005B4H   PUBLIC    EDATA    BYTE      SPI_RxCnt
      000000CFH   SFRSYM    DATA     BYTE      SPDAT
      000000D0H   SFRSYM    DATA     BYTE      PSW
      0000009DH   SFRSYM    DATA     BYTE      IRCBAND
      00000097H   SFRSYM    DATA     BYTE      AUXR2
      000000EFH   SFRSYM    DATA     BYTE      AUXINTIF
      000000FDH   SFRSYM    DATA     BYTE      S4CON
      000000ACH   SFRSYM    DATA     BYTE      S3CON
      0000009AH   SFRSYM    DATA     BYTE      S2CON
      000000B7H   SFRSYM    DATA     BYTE      IPH
      000000CDH   SFRSYM    DATA     BYTE      SPSTAT
      000000DDH   SFRSYM    DATA     BYTE      T4T3M
      000000C1H   SFRSYM    DATA     BYTE      WDT_CONTR
      000000DFH   SFRSYM    DATA     BYTE      IP3
      000000F4H   SFRSYM    DATA     BYTE      USBCON
      000000B5H   SFRSYM    DATA     BYTE      IP2
      000000FFH   SFRSYM    DATA     BYTE      RSTCFG
      000000CEH.4 SFRSYM    DATA     BIT       MSTR
      000000C7H   SFRSYM    DATA     BYTE      IAP_CONTR
      000000F9H   SFRSYM    DATA     BYTE      LINICR
      0000008EH   SFRSYM    DATA     BYTE      AUXR
      000000AFH   SFRSYM    DATA     BYTE      IE2
      000000CDH.6 SFRSYM    DATA     BIT       WCOL
      00000088H   SFRSYM    DATA     BYTE      TCON
      00000089H   SFRSYM    DATA     BYTE      TMOD
      00000098H   SFRSYM    DATA     BYTE      SCON
      000000CDH.7 SFRSYM    DATA     BIT       SPIF
      000000F1H   SFRSYM    DATA     BYTE      CANICR
      00000087H   SFRSYM    DATA     BYTE      PCON
      000000BCH   SFRSYM    DATA     BYTE      ADC_CONTR
      000000E7H   SFRSYM    DATA     BYTE      CMPCR2
      000000E6H   SFRSYM    DATA     BYTE      CMPCR1
      000000DEH   SFRSYM    DATA     BYTE      ADCCFG
      000000B8H   SFRSYM    DATA     BYTE      IP
      0000008FH   SFRSYM    DATA     BYTE      INTCLKO
      000000EEH   SFRSYM    DATA     BYTE      IP3H
L251 LINKER/LOCATER V4.66.93.0                                                        11/26/2024  21:46:51  PAGE 85


      000000B6H   SFRSYM    DATA     BYTE      IP2H
      000000A8H   SFRSYM    DATA     BYTE      IE
      000000BBH   SFRSYM    DATA     BYTE      P_SW3
      000000BAH   SFRSYM    DATA     BYTE      P_SW2
      000000A2H   SFRSYM    DATA     BYTE      P_SW1
      000000CEH   SFRSYM    DATA     BYTE      SPCTL
      000000F8H   SFRSYM    DATA     BYTE      P7
      000000E8H   SFRSYM    DATA     BYTE      P6
      000000C8H   SFRSYM    DATA     BYTE      P5
      000000C0H   SFRSYM    DATA     BYTE      P4
      000000B0H   SFRSYM    DATA     BYTE      P3
      000000A0H   SFRSYM    DATA     BYTE      P2
      00000090H   SFRSYM    DATA     BYTE      P1
      00000080H   SFRSYM    DATA     BYTE      P0

      00FF21ECH   BLOCK     CODE     ---       LVL=0
      00FF21ECH   LINE      CODE     ---       #28
      00FF21F2H   LINE      CODE     ---       #30
      00FF21F6H   LINE      CODE     ---       #32
      00FF21F8H   LINE      CODE     ---       #33
      00FF21FAH   LINE      CODE     ---       #36
      00FF2208H   LINE      CODE     ---       #37
      00FF221CH   LINE      CODE     ---       #38
      00FF2222H   LINE      CODE     ---       #39
      00FF2222H   LINE      CODE     ---       #40
      00FF2228H   LINE      CODE     ---       #41
      ---         BLOCKEND  ---      ---       LVL=0

      ---         MODULE    ---      ---       STC32G_Timer_Isr
      00FF2506H   PUBLIC    CODE     ---       Timer0_ISR_Handler
      00FF2616H   PUBLIC    CODE     ---       Timer1_ISR_Handler
      00FF261DH   PUBLIC    CODE     ---       Timer2_ISR_Handler
      00FF2624H   PUBLIC    CODE     ---       Timer3_ISR_Handler
      00FF262BH   PUBLIC    CODE     ---       Timer4_ISR_Handler
      000000D0H   SFRSYM    DATA     BYTE      PSW
      0000009DH   SFRSYM    DATA     BYTE      IRCBAND
      00000097H   SFRSYM    DATA     BYTE      AUXR2
      000000EFH   SFRSYM    DATA     BYTE      AUXINTIF
      000000FDH   SFRSYM    DATA     BYTE      S4CON
      000000ACH   SFRSYM    DATA     BYTE      S3CON
      0000009AH   SFRSYM    DATA     BYTE      S2CON
      000000B7H   SFRSYM    DATA     BYTE      IPH
      000000CDH   SFRSYM    DATA     BYTE      SPSTAT
      000000DDH   SFRSYM    DATA     BYTE      T4T3M
      000000C1H   SFRSYM    DATA     BYTE      WDT_CONTR
      000000DFH   SFRSYM    DATA     BYTE      IP3
      000000F4H   SFRSYM    DATA     BYTE      USBCON
      000000B5H   SFRSYM    DATA     BYTE      IP2
      000000FFH   SFRSYM    DATA     BYTE      RSTCFG
      000000C7H   SFRSYM    DATA     BYTE      IAP_CONTR
      000000F9H   SFRSYM    DATA     BYTE      LINICR
      0000008EH   SFRSYM    DATA     BYTE      AUXR
      000000AFH   SFRSYM    DATA     BYTE      IE2
      000000E8H.6 SFRSYM    DATA     BIT       P66
      000000E8H.5 SFRSYM    DATA     BIT       P65
      000000E8H.4 SFRSYM    DATA     BIT       P64
      000000E8H.3 SFRSYM    DATA     BIT       P63
      00000088H   SFRSYM    DATA     BYTE      TCON
      00000089H   SFRSYM    DATA     BYTE      TMOD
      00000098H   SFRSYM    DATA     BYTE      SCON
      000000F1H   SFRSYM    DATA     BYTE      CANICR
      00000087H   SFRSYM    DATA     BYTE      PCON
      000000BCH   SFRSYM    DATA     BYTE      ADC_CONTR
      000000E7H   SFRSYM    DATA     BYTE      CMPCR2
      000000E6H   SFRSYM    DATA     BYTE      CMPCR1
L251 LINKER/LOCATER V4.66.93.0                                                        11/26/2024  21:46:51  PAGE 86


      000000DEH   SFRSYM    DATA     BYTE      ADCCFG
      000000B8H   SFRSYM    DATA     BYTE      IP
      0000008FH   SFRSYM    DATA     BYTE      INTCLKO
      000000EEH   SFRSYM    DATA     BYTE      IP3H
      000000B6H   SFRSYM    DATA     BYTE      IP2H
      000000A8H   SFRSYM    DATA     BYTE      IE
      000000BBH   SFRSYM    DATA     BYTE      P_SW3
      000000BAH   SFRSYM    DATA     BYTE      P_SW2
      000000A2H   SFRSYM    DATA     BYTE      P_SW1
      000000CEH   SFRSYM    DATA     BYTE      SPCTL
      000000F8H   SFRSYM    DATA     BYTE      P7
      000000E8H   SFRSYM    DATA     BYTE      P6
      000000C8H   SFRSYM    DATA     BYTE      P5
      000000C0H   SFRSYM    DATA     BYTE      P4
      000000B0H   SFRSYM    DATA     BYTE      P3
      000000A0H   SFRSYM    DATA     BYTE      P2
      00000090H   SFRSYM    DATA     BYTE      P1
      00000080H   SFRSYM    DATA     BYTE      P0

      00FF2506H   BLOCK     CODE     ---       LVL=0
      00FF2506H   LINE      CODE     ---       #23
      00FF251CH   LINE      CODE     ---       #25
      00FF251FH   LINE      CODE     ---       #26
      ---         BLOCKEND  ---      ---       LVL=0

      00FF2616H   BLOCK     CODE     ---       LVL=0
      00FF2616H   LINE      CODE     ---       #35
      00FF2618H   LINE      CODE     ---       #38
      00FF261AH   LINE      CODE     ---       #39
      ---         BLOCKEND  ---      ---       LVL=0

      00FF261DH   BLOCK     CODE     ---       LVL=0
      00FF261DH   LINE      CODE     ---       #48
      00FF261FH   LINE      CODE     ---       #51
      00FF2621H   LINE      CODE     ---       #52
      ---         BLOCKEND  ---      ---       LVL=0

      00FF2624H   BLOCK     CODE     ---       LVL=0
      00FF2624H   LINE      CODE     ---       #61
      00FF2626H   LINE      CODE     ---       #64
      00FF2628H   LINE      CODE     ---       #65
      ---         BLOCKEND  ---      ---       LVL=0

      00FF262BH   BLOCK     CODE     ---       LVL=0
      00FF262BH   LINE      CODE     ---       #74
      00FF262DH   LINE      CODE     ---       #77
      00FF262FH   LINE      CODE     ---       #78
      ---         BLOCKEND  ---      ---       LVL=0

      ---         MODULE    ---      ---       STC32G_UART_Isr
      00FF1DECH   PUBLIC    CODE     ---       UART1_ISR_Handler
      00FF1D83H   PUBLIC    CODE     ---       UART2_ISR_Handler
      00FF20D2H   PUBLIC    CODE     ---       UART3_ISR_Handler
      00FF211AH   PUBLIC    CODE     ---       UART4_ISR_Handler
      00000024H.1 PUBLIC    BIT      BIT       B_ULinRX1_Flag
      00000024H.2 PUBLIC    BIT      BIT       B_ULinRX2_Flag
      000000D0H   SFRSYM    DATA     BYTE      PSW
      0000009DH   SFRSYM    DATA     BYTE      IRCBAND
      00000097H   SFRSYM    DATA     BYTE      AUXR2
      000000EFH   SFRSYM    DATA     BYTE      AUXINTIF
      000000FDH   SFRSYM    DATA     BYTE      S4CON
      000000ACH   SFRSYM    DATA     BYTE      S3CON
      0000009AH   SFRSYM    DATA     BYTE      S2CON
      000000FEH   SFRSYM    DATA     BYTE      S4BUF
      000000ADH   SFRSYM    DATA     BYTE      S3BUF
L251 LINKER/LOCATER V4.66.93.0                                                        11/26/2024  21:46:51  PAGE 87


      0000009BH   SFRSYM    DATA     BYTE      S2BUF
      000000B7H   SFRSYM    DATA     BYTE      IPH
      000000CDH   SFRSYM    DATA     BYTE      SPSTAT
      000000DDH   SFRSYM    DATA     BYTE      T4T3M
      000000C1H   SFRSYM    DATA     BYTE      WDT_CONTR
      000000DFH   SFRSYM    DATA     BYTE      IP3
      000000F4H   SFRSYM    DATA     BYTE      USBCON
      000000B5H   SFRSYM    DATA     BYTE      IP2
      000000FFH   SFRSYM    DATA     BYTE      RSTCFG
      000000C7H   SFRSYM    DATA     BYTE      IAP_CONTR
      000000F9H   SFRSYM    DATA     BYTE      LINICR
      0000008EH   SFRSYM    DATA     BYTE      AUXR
      000000AFH   SFRSYM    DATA     BYTE      IE2
      00000088H   SFRSYM    DATA     BYTE      TCON
      00000089H   SFRSYM    DATA     BYTE      TMOD
      00000098H   SFRSYM    DATA     BYTE      SCON
      000000F1H   SFRSYM    DATA     BYTE      CANICR
      00000087H   SFRSYM    DATA     BYTE      PCON
      00000099H   SFRSYM    DATA     BYTE      SBUF
      000000BCH   SFRSYM    DATA     BYTE      ADC_CONTR
      000000E7H   SFRSYM    DATA     BYTE      CMPCR2
      000000E6H   SFRSYM    DATA     BYTE      CMPCR1
      000000FDH.1 SFRSYM    DATA     BIT       S4TI
      000000ACH.1 SFRSYM    DATA     BIT       S3TI
      0000009AH.1 SFRSYM    DATA     BIT       S2TI
      000000FDH.0 SFRSYM    DATA     BIT       S4RI
      000000ACH.0 SFRSYM    DATA     BIT       S3RI
      0000009AH.0 SFRSYM    DATA     BIT       S2RI
      00000098H.1 SFRSYM    DATA     BIT       TI
      00000098H.0 SFRSYM    DATA     BIT       RI
      000000DEH   SFRSYM    DATA     BYTE      ADCCFG
      000000B8H   SFRSYM    DATA     BYTE      IP
      0000008FH   SFRSYM    DATA     BYTE      INTCLKO
      000000EEH   SFRSYM    DATA     BYTE      IP3H
      000000B6H   SFRSYM    DATA     BYTE      IP2H
      000000A8H   SFRSYM    DATA     BYTE      IE
      000000BBH   SFRSYM    DATA     BYTE      P_SW3
      000000BAH   SFRSYM    DATA     BYTE      P_SW2
      000000A2H   SFRSYM    DATA     BYTE      P_SW1
      000000CEH   SFRSYM    DATA     BYTE      SPCTL
      000000F8H   SFRSYM    DATA     BYTE      P7
      000000E8H   SFRSYM    DATA     BYTE      P6
      000000C8H   SFRSYM    DATA     BYTE      P5
      000000C0H   SFRSYM    DATA     BYTE      P4
      000000B0H   SFRSYM    DATA     BYTE      P3
      000000A0H   SFRSYM    DATA     BYTE      P2
      00000090H   SFRSYM    DATA     BYTE      P1
      00000080H   SFRSYM    DATA     BYTE      P0

      00FF1DECH   BLOCK     CODE     ---       LVL=0
      00FF1DF2H   BLOCK     CODE     NEAR LAB  LVL=1
      R11         REGSYM    ---      BYTE      Status
      ---         BLOCKEND  ---      ---       LVL=1
      00FF1DECH   LINE      CODE     ---       #27
      00FF1DF2H   LINE      CODE     ---       #28
      00FF1DF2H   LINE      CODE     ---       #31
      00FF1DF5H   LINE      CODE     ---       #33
      00FF1DF7H   LINE      CODE     ---       #36
      00FF1E02H   LINE      CODE     ---       #37
      00FF1E05H   LINE      CODE     ---       #39
      00FF1E07H   LINE      CODE     ---       #40
      00FF1E07H   LINE      CODE     ---       #42
      00FF1E0BH   LINE      CODE     ---       #44
      00FF1E10H   LINE      CODE     ---       #45
      00FF1E10H   LINE      CODE     ---       #46
L251 LINKER/LOCATER V4.66.93.0                                                        11/26/2024  21:46:51  PAGE 88


      00FF1E18H   LINE      CODE     ---       #49
      00FF1E26H   LINE      CODE     ---       #50
      00FF1E3AH   LINE      CODE     ---       #51
      00FF1E40H   LINE      CODE     ---       #52
      00FF1E40H   LINE      CODE     ---       #54
      00FF1E43H   LINE      CODE     ---       #56
      00FF1E45H   LINE      CODE     ---       #66
      00FF1E4AH   LINE      CODE     ---       #68
      ---         BLOCKEND  ---      ---       LVL=0

      00FF1D83H   BLOCK     CODE     ---       LVL=0
      00FF1D89H   BLOCK     CODE     NEAR LAB  LVL=1
      R11         REGSYM    ---      BYTE      Status
      ---         BLOCKEND  ---      ---       LVL=1
      00FF1D83H   LINE      CODE     ---       #80
      00FF1D89H   LINE      CODE     ---       #81
      00FF1D89H   LINE      CODE     ---       #84
      00FF1D8DH   LINE      CODE     ---       #86
      00FF1D90H   LINE      CODE     ---       #89
      00FF1D9BH   LINE      CODE     ---       #90
      00FF1D9EH   LINE      CODE     ---       #92
      00FF1DA0H   LINE      CODE     ---       #93
      00FF1DA0H   LINE      CODE     ---       #95
      00FF1DA4H   LINE      CODE     ---       #97
      00FF1DA9H   LINE      CODE     ---       #98
      00FF1DA9H   LINE      CODE     ---       #99
      00FF1DB1H   LINE      CODE     ---       #102
      00FF1DBFH   LINE      CODE     ---       #103
      00FF1DD3H   LINE      CODE     ---       #104
      00FF1DD9H   LINE      CODE     ---       #105
      00FF1DD9H   LINE      CODE     ---       #107
      00FF1DDDH   LINE      CODE     ---       #109
      00FF1DE0H   LINE      CODE     ---       #119
      00FF1DE5H   LINE      CODE     ---       #121
      ---         BLOCKEND  ---      ---       LVL=0

      00FF20D2H   BLOCK     CODE     ---       LVL=0
      00FF20D2H   LINE      CODE     ---       #133
      00FF20D8H   LINE      CODE     ---       #135
      00FF20DCH   LINE      CODE     ---       #137
      00FF20DFH   LINE      CODE     ---       #139
      00FF20EDH   LINE      CODE     ---       #140
      00FF2101H   LINE      CODE     ---       #141
      00FF2107H   LINE      CODE     ---       #142
      00FF2107H   LINE      CODE     ---       #144
      00FF210BH   LINE      CODE     ---       #146
      00FF210EH   LINE      CODE     ---       #156
      00FF2113H   LINE      CODE     ---       #158
      ---         BLOCKEND  ---      ---       LVL=0

      00FF211AH   BLOCK     CODE     ---       LVL=0
      00FF211AH   LINE      CODE     ---       #170
      00FF2120H   LINE      CODE     ---       #172
      00FF2124H   LINE      CODE     ---       #174
      00FF2127H   LINE      CODE     ---       #176
      00FF2135H   LINE      CODE     ---       #177
      00FF2149H   LINE      CODE     ---       #178
      00FF214FH   LINE      CODE     ---       #179
      00FF214FH   LINE      CODE     ---       #181
      00FF2153H   LINE      CODE     ---       #183
      00FF2156H   LINE      CODE     ---       #193
      00FF215BH   LINE      CODE     ---       #195
      ---         BLOCKEND  ---      ---       LVL=0

      ---         MODULE    ---      ---       STC32G_DMA_Isr
L251 LINKER/LOCATER V4.66.93.0                                                        11/26/2024  21:46:51  PAGE 89


      00FF1F0DH   PUBLIC    CODE     ---       DMA_LCM_ISR_Handler
      00FF1FAFH   PUBLIC    CODE     ---       DMA_SPI_ISR_Handler
      00FF22A4H   PUBLIC    CODE     ---       DMA_I2CR_ISR_Handler
      00FF22D7H   PUBLIC    CODE     ---       DMA_I2CT_ISR_Handler
      00FF230AH   PUBLIC    CODE     ---       DMA_UART1RX_ISR_Handler
      00FF233DH   PUBLIC    CODE     ---       DMA_UART2RX_ISR_Handler
      00FF2370H   PUBLIC    CODE     ---       DMA_UART3RX_ISR_Handler
      00FF23A3H   PUBLIC    CODE     ---       DMA_UART1TX_ISR_Handler
      00FF23D6H   PUBLIC    CODE     ---       DMA_UART4RX_ISR_Handler
      00FF2409H   PUBLIC    CODE     ---       DMA_UART2TX_ISR_Handler
      00FF243CH   PUBLIC    CODE     ---       DMA_UART3TX_ISR_Handler
      00FF14DDH   PUBLIC    CODE     ---       DMA_ISR_Handler
      00FF246FH   PUBLIC    CODE     ---       DMA_UART4TX_ISR_Handler
      00FF00F6H   PUBLIC    CODE     ---       DMA_ADC_ISR_Handler
      00FF24A2H   PUBLIC    CODE     ---       DMA_M2M_ISR_Handler
      00000020H.0 PUBLIC    BIT      BIT       DmaRx1Flag
      00000020H.1 PUBLIC    BIT      BIT       DmaRx2Flag
      00000020H.2 PUBLIC    BIT      BIT       DmaRx3Flag
      00000020H.3 PUBLIC    BIT      BIT       DmaTx1Flag
      00000020H.4 PUBLIC    BIT      BIT       DmaRx4Flag
      00000020H.5 PUBLIC    BIT      BIT       DmaTx2Flag
      00000020H.6 PUBLIC    BIT      BIT       DmaTx3Flag
      00000020H.7 PUBLIC    BIT      BIT       DmaTx4Flag
      00000021H.0 PUBLIC    BIT      BIT       s2uFlag
      00000021H.1 PUBLIC    BIT      BIT       u2sFlag
      00000021H.2 PUBLIC    BIT      BIT       DmaI2CRFlag
      00000021H.3 PUBLIC    BIT      BIT       DmaI2CTFlag
      00000021H.4 PUBLIC    BIT      BIT       UartSendFlag
      00000021H.5 PUBLIC    BIT      BIT       DmaLcmFlag
      00000021H.6 PUBLIC    BIT      BIT       SpiSendFlag
      00000021H.7 PUBLIC    BIT      BIT       DmaADCFlag
      00000022H.0 PUBLIC    BIT      BIT       DmaM2MFlag
      00000022H.1 PUBLIC    BIT      BIT       SpiRxFlag
      00000022H.2 PUBLIC    BIT      BIT       SpiTxFlag
      0000001EH   PUBLIC    EDATA    WORD      LCM_Cnt
      000000D0H   SFRSYM    DATA     BYTE      PSW
      0000009DH   SFRSYM    DATA     BYTE      IRCBAND
      00000097H   SFRSYM    DATA     BYTE      AUXR2
      000000EFH   SFRSYM    DATA     BYTE      AUXINTIF
      000000FDH   SFRSYM    DATA     BYTE      S4CON
      000000ACH   SFRSYM    DATA     BYTE      S3CON
      0000009AH   SFRSYM    DATA     BYTE      S2CON
      000000B7H   SFRSYM    DATA     BYTE      IPH
      000000CDH   SFRSYM    DATA     BYTE      SPSTAT
      000000DDH   SFRSYM    DATA     BYTE      T4T3M
      000000C1H   SFRSYM    DATA     BYTE      WDT_CONTR
      000000DFH   SFRSYM    DATA     BYTE      IP3
      000000F4H   SFRSYM    DATA     BYTE      USBCON
      000000B5H   SFRSYM    DATA     BYTE      IP2
      000000FFH   SFRSYM    DATA     BYTE      RSTCFG
      000000B0H.4 SFRSYM    DATA     BIT       LCD_CS
      000000CEH.4 SFRSYM    DATA     BIT       MSTR
      000000C7H   SFRSYM    DATA     BYTE      IAP_CONTR
      000000F9H   SFRSYM    DATA     BYTE      LINICR
      0000008EH   SFRSYM    DATA     BYTE      AUXR
      000000AFH   SFRSYM    DATA     BYTE      IE2
      00000088H   SFRSYM    DATA     BYTE      TCON
      00000089H   SFRSYM    DATA     BYTE      TMOD
      00000098H   SFRSYM    DATA     BYTE      SCON
      000000F1H   SFRSYM    DATA     BYTE      CANICR
      00000087H   SFRSYM    DATA     BYTE      PCON
      000000BCH   SFRSYM    DATA     BYTE      ADC_CONTR
      000000E7H   SFRSYM    DATA     BYTE      CMPCR2
      000000E6H   SFRSYM    DATA     BYTE      CMPCR1
      000000DEH   SFRSYM    DATA     BYTE      ADCCFG
L251 LINKER/LOCATER V4.66.93.0                                                        11/26/2024  21:46:51  PAGE 90


      000000B8H   SFRSYM    DATA     BYTE      IP
      0000008FH   SFRSYM    DATA     BYTE      INTCLKO
      000000EEH   SFRSYM    DATA     BYTE      IP3H
      000000B6H   SFRSYM    DATA     BYTE      IP2H
      000000A8H   SFRSYM    DATA     BYTE      IE
      000000BBH   SFRSYM    DATA     BYTE      P_SW3
      000000BAH   SFRSYM    DATA     BYTE      P_SW2
      000000A2H   SFRSYM    DATA     BYTE      P_SW1
      000000CEH   SFRSYM    DATA     BYTE      SPCTL
      000000F8H   SFRSYM    DATA     BYTE      P7
      000000E8H   SFRSYM    DATA     BYTE      P6
      000000A0H.2 SFRSYM    DATA     BIT       SPI_SS_2
      000000C8H   SFRSYM    DATA     BYTE      P5
      000000C0H   SFRSYM    DATA     BYTE      P4
      000000B0H   SFRSYM    DATA     BYTE      P3
      000000A0H   SFRSYM    DATA     BYTE      P2
      00000090H   SFRSYM    DATA     BYTE      P1
      00000080H   SFRSYM    DATA     BYTE      P0

      00FF00F6H   BLOCK     CODE     ---       LVL=0
      00FF00F6H   LINE      CODE     ---       #50
      00FF00FCH   LINE      CODE     ---       #53
      00FF010AH   LINE      CODE     ---       #55
      00FF0112H   LINE      CODE     ---       #56
      00FF0114H   LINE      CODE     ---       #57
      ---         BLOCKEND  ---      ---       LVL=0

      00FF24A2H   BLOCK     CODE     ---       LVL=0
      00FF24A2H   LINE      CODE     ---       #67
      00FF24A8H   LINE      CODE     ---       #70
      00FF24B6H   LINE      CODE     ---       #72
      00FF24BEH   LINE      CODE     ---       #73
      00FF24C0H   LINE      CODE     ---       #74
      00FF24C3H   LINE      CODE     ---       #76
      00FF24C5H   LINE      CODE     ---       #77
      00FF24C7H   LINE      CODE     ---       #78
      00FF24C7H   LINE      CODE     ---       #79
      00FF24CAH   LINE      CODE     ---       #81
      00FF24CCH   LINE      CODE     ---       #82
      00FF24CEH   LINE      CODE     ---       #83
      00FF24CEH   LINE      CODE     ---       #85
      ---         BLOCKEND  ---      ---       LVL=0

      00FF23A3H   BLOCK     CODE     ---       LVL=0
      00FF23A3H   LINE      CODE     ---       #94
      00FF23A9H   LINE      CODE     ---       #97
      00FF23B7H   LINE      CODE     ---       #99
      00FF23BFH   LINE      CODE     ---       #100
      00FF23C1H   LINE      CODE     ---       #101
      00FF23C1H   LINE      CODE     ---       #102
      00FF23C7H   LINE      CODE     ---       #104
      00FF23CFH   LINE      CODE     ---       #105
      ---         BLOCKEND  ---      ---       LVL=0

      00FF230AH   BLOCK     CODE     ---       LVL=0
      00FF230AH   LINE      CODE     ---       #115
      00FF2310H   LINE      CODE     ---       #118
      00FF231EH   LINE      CODE     ---       #120
      00FF2326H   LINE      CODE     ---       #121
      00FF2328H   LINE      CODE     ---       #125
      00FF2328H   LINE      CODE     ---       #126
      00FF232EH   LINE      CODE     ---       #128
      00FF2336H   LINE      CODE     ---       #129
      ---         BLOCKEND  ---      ---       LVL=0

L251 LINKER/LOCATER V4.66.93.0                                                        11/26/2024  21:46:51  PAGE 91


      00FF2409H   BLOCK     CODE     ---       LVL=0
      00FF2409H   LINE      CODE     ---       #139
      00FF240FH   LINE      CODE     ---       #142
      00FF241DH   LINE      CODE     ---       #144
      00FF2425H   LINE      CODE     ---       #145
      00FF2427H   LINE      CODE     ---       #146
      00FF2427H   LINE      CODE     ---       #147
      00FF242DH   LINE      CODE     ---       #149
      00FF2435H   LINE      CODE     ---       #150
      ---         BLOCKEND  ---      ---       LVL=0

      00FF233DH   BLOCK     CODE     ---       LVL=0
      00FF233DH   LINE      CODE     ---       #160
      00FF2343H   LINE      CODE     ---       #163
      00FF2351H   LINE      CODE     ---       #165
      00FF2359H   LINE      CODE     ---       #166
      00FF235BH   LINE      CODE     ---       #170
      00FF235BH   LINE      CODE     ---       #171
      00FF2361H   LINE      CODE     ---       #173
      00FF2369H   LINE      CODE     ---       #174
      ---         BLOCKEND  ---      ---       LVL=0

      00FF243CH   BLOCK     CODE     ---       LVL=0
      00FF243CH   LINE      CODE     ---       #184
      00FF2442H   LINE      CODE     ---       #187
      00FF2450H   LINE      CODE     ---       #189
      00FF2458H   LINE      CODE     ---       #190
      00FF245AH   LINE      CODE     ---       #191
      00FF245AH   LINE      CODE     ---       #192
      00FF2460H   LINE      CODE     ---       #194
      00FF2468H   LINE      CODE     ---       #195
      ---         BLOCKEND  ---      ---       LVL=0

      00FF2370H   BLOCK     CODE     ---       LVL=0
      00FF2370H   LINE      CODE     ---       #205
      00FF2376H   LINE      CODE     ---       #208
      00FF2384H   LINE      CODE     ---       #210
      00FF238CH   LINE      CODE     ---       #211
      00FF238EH   LINE      CODE     ---       #215
      00FF238EH   LINE      CODE     ---       #216
      00FF2394H   LINE      CODE     ---       #218
      00FF239CH   LINE      CODE     ---       #219
      ---         BLOCKEND  ---      ---       LVL=0

      00FF246FH   BLOCK     CODE     ---       LVL=0
      00FF246FH   LINE      CODE     ---       #229
      00FF2475H   LINE      CODE     ---       #232
      00FF2483H   LINE      CODE     ---       #234
      00FF248BH   LINE      CODE     ---       #235
      00FF248DH   LINE      CODE     ---       #236
      00FF248DH   LINE      CODE     ---       #237
      00FF2493H   LINE      CODE     ---       #239
      00FF249BH   LINE      CODE     ---       #240
      ---         BLOCKEND  ---      ---       LVL=0

      00FF23D6H   BLOCK     CODE     ---       LVL=0
      00FF23D6H   LINE      CODE     ---       #250
      00FF23DCH   LINE      CODE     ---       #253
      00FF23EAH   LINE      CODE     ---       #255
      00FF23F2H   LINE      CODE     ---       #256
      00FF23F4H   LINE      CODE     ---       #260
      00FF23F4H   LINE      CODE     ---       #261
      00FF23FAH   LINE      CODE     ---       #263
      00FF2402H   LINE      CODE     ---       #264
      ---         BLOCKEND  ---      ---       LVL=0
L251 LINKER/LOCATER V4.66.93.0                                                        11/26/2024  21:46:51  PAGE 92



      00FF1FAFH   BLOCK     CODE     ---       LVL=0
      00FF1FAFH   LINE      CODE     ---       #274
      00FF1FB5H   LINE      CODE     ---       #277
      00FF1FC3H   LINE      CODE     ---       #279
      00FF1FCBH   LINE      CODE     ---       #280
      00FF1FCFH   LINE      CODE     ---       #282
      00FF1FD1H   LINE      CODE     ---       #283
      00FF1FD3H   LINE      CODE     ---       #284
      00FF1FD5H   LINE      CODE     ---       #287
      00FF1FD7H   LINE      CODE     ---       #288
      00FF1FD7H   LINE      CODE     ---       #289
      00FF1FD7H   LINE      CODE     ---       #290
      00FF1FDDH   LINE      CODE     ---       #292
      00FF1FE5H   LINE      CODE     ---       #293
      00FF1FE5H   LINE      CODE     ---       #294
      00FF1FEBH   LINE      CODE     ---       #296
      00FF1FF3H   LINE      CODE     ---       #297
      ---         BLOCKEND  ---      ---       LVL=0

      00FF22D7H   BLOCK     CODE     ---       LVL=0
      00FF22D7H   LINE      CODE     ---       #307
      00FF22DDH   LINE      CODE     ---       #310
      00FF22EBH   LINE      CODE     ---       #312
      00FF22F3H   LINE      CODE     ---       #313
      00FF22F5H   LINE      CODE     ---       #314
      00FF22F5H   LINE      CODE     ---       #315
      00FF22FBH   LINE      CODE     ---       #317
      00FF2303H   LINE      CODE     ---       #318
      ---         BLOCKEND  ---      ---       LVL=0

      00FF22A4H   BLOCK     CODE     ---       LVL=0
      00FF22A4H   LINE      CODE     ---       #328
      00FF22AAH   LINE      CODE     ---       #331
      00FF22B8H   LINE      CODE     ---       #333
      00FF22C0H   LINE      CODE     ---       #334
      00FF22C2H   LINE      CODE     ---       #335
      00FF22C2H   LINE      CODE     ---       #336
      00FF22C8H   LINE      CODE     ---       #338
      00FF22D0H   LINE      CODE     ---       #339
      ---         BLOCKEND  ---      ---       LVL=0

      00FF1F0DH   BLOCK     CODE     ---       LVL=0
      00FF1F0DH   LINE      CODE     ---       #349
      00FF1F15H   LINE      CODE     ---       #352
      00FF1F23H   LINE      CODE     ---       #354
      00FF1F26H   LINE      CODE     ---       #356
      00FF1F28H   LINE      CODE     ---       #357
      00FF1F29H   LINE      CODE     ---       #358
      00FF1F2BH   LINE      CODE     ---       #361
      00FF1F35H   LINE      CODE     ---       #362
      00FF1F39H   LINE      CODE     ---       #364
      00FF1F45H   LINE      CODE     ---       #365
      00FF1F47H   LINE      CODE     ---       #366
      00FF1F49H   LINE      CODE     ---       #369
      00FF1F56H   LINE      CODE     ---       #370
      00FF1F56H   LINE      CODE     ---       #371
      00FF1F56H   LINE      CODE     ---       #372
      00FF1F5AH   LINE      CODE     ---       #373
      ---         BLOCKEND  ---      ---       LVL=0

      00FF14DDH   BLOCK     CODE     ---       LVL=0
      00FF14DDH   LINE      CODE     ---       #383
      00FF14E5H   LINE      CODE     ---       #388
      00FF14F3H   LINE      CODE     ---       #390
L251 LINKER/LOCATER V4.66.93.0                                                        11/26/2024  21:46:51  PAGE 93


      00FF14FBH   LINE      CODE     ---       #391
      00FF14FDH   LINE      CODE     ---       #392
      00FF14FDH   LINE      CODE     ---       #395
      00FF150BH   LINE      CODE     ---       #397
      00FF1513H   LINE      CODE     ---       #398
      00FF1515H   LINE      CODE     ---       #399
      00FF1518H   LINE      CODE     ---       #401
      00FF151AH   LINE      CODE     ---       #402
      00FF151CH   LINE      CODE     ---       #403
      00FF151CH   LINE      CODE     ---       #404
      00FF151FH   LINE      CODE     ---       #406
      00FF1521H   LINE      CODE     ---       #407
      00FF1523H   LINE      CODE     ---       #408
      00FF1523H   LINE      CODE     ---       #412
      00FF1531H   LINE      CODE     ---       #414
      00FF1539H   LINE      CODE     ---       #415
      00FF153BH   LINE      CODE     ---       #416
      00FF153BH   LINE      CODE     ---       #417
      00FF1541H   LINE      CODE     ---       #419
      00FF1549H   LINE      CODE     ---       #420
      00FF1549H   LINE      CODE     ---       #422
      00FF1557H   LINE      CODE     ---       #424
      00FF155FH   LINE      CODE     ---       #425
      00FF1561H   LINE      CODE     ---       #426
      00FF1561H   LINE      CODE     ---       #427
      00FF1567H   LINE      CODE     ---       #429
      00FF156FH   LINE      CODE     ---       #430
      00FF156FH   LINE      CODE     ---       #432
      00FF157DH   LINE      CODE     ---       #434
      00FF1585H   LINE      CODE     ---       #435
      00FF1587H   LINE      CODE     ---       #436
      00FF1587H   LINE      CODE     ---       #437
      00FF158DH   LINE      CODE     ---       #439
      00FF1595H   LINE      CODE     ---       #440
      00FF1595H   LINE      CODE     ---       #442
      00FF15A3H   LINE      CODE     ---       #444
      00FF15ABH   LINE      CODE     ---       #445
      00FF15ADH   LINE      CODE     ---       #446
      00FF15ADH   LINE      CODE     ---       #447
      00FF15B3H   LINE      CODE     ---       #449
      00FF15BBH   LINE      CODE     ---       #450
      00FF15BBH   LINE      CODE     ---       #452
      00FF15C9H   LINE      CODE     ---       #454
      00FF15D1H   LINE      CODE     ---       #455
      00FF15D3H   LINE      CODE     ---       #456
      00FF15D3H   LINE      CODE     ---       #457
      00FF15D9H   LINE      CODE     ---       #459
      00FF15E1H   LINE      CODE     ---       #460
      00FF15E1H   LINE      CODE     ---       #462
      00FF15EFH   LINE      CODE     ---       #464
      00FF15F7H   LINE      CODE     ---       #465
      00FF15F9H   LINE      CODE     ---       #466
      00FF15F9H   LINE      CODE     ---       #467
      00FF15FFH   LINE      CODE     ---       #469
      00FF1607H   LINE      CODE     ---       #470
      00FF1607H   LINE      CODE     ---       #472
      00FF1615H   LINE      CODE     ---       #474
      00FF161DH   LINE      CODE     ---       #475
      00FF161FH   LINE      CODE     ---       #476
      00FF161FH   LINE      CODE     ---       #477
      00FF1625H   LINE      CODE     ---       #479
      00FF162DH   LINE      CODE     ---       #480
      00FF162DH   LINE      CODE     ---       #482
      00FF163BH   LINE      CODE     ---       #484
      00FF1643H   LINE      CODE     ---       #485
L251 LINKER/LOCATER V4.66.93.0                                                        11/26/2024  21:46:51  PAGE 94


      00FF1645H   LINE      CODE     ---       #486
      00FF1645H   LINE      CODE     ---       #487
      00FF164BH   LINE      CODE     ---       #489
      00FF1653H   LINE      CODE     ---       #490
      00FF1653H   LINE      CODE     ---       #493
      00FF1661H   LINE      CODE     ---       #495
      00FF1669H   LINE      CODE     ---       #496
      00FF166DH   LINE      CODE     ---       #498
      00FF166FH   LINE      CODE     ---       #499
      00FF1671H   LINE      CODE     ---       #500
      00FF1673H   LINE      CODE     ---       #503
      00FF1675H   LINE      CODE     ---       #504
      00FF1675H   LINE      CODE     ---       #505
      00FF1675H   LINE      CODE     ---       #506
      00FF167BH   LINE      CODE     ---       #508
      00FF1683H   LINE      CODE     ---       #509
      00FF1683H   LINE      CODE     ---       #510
      00FF1689H   LINE      CODE     ---       #512
      00FF1691H   LINE      CODE     ---       #513
      00FF1691H   LINE      CODE     ---       #516
      00FF169FH   LINE      CODE     ---       #518
      00FF16A3H   LINE      CODE     ---       #519
      00FF16A5H   LINE      CODE     ---       #520
      00FF16A5H   LINE      CODE     ---       #523
      00FF16B3H   LINE      CODE     ---       #525
      00FF16B6H   LINE      CODE     ---       #527
      00FF16B8H   LINE      CODE     ---       #528
      00FF16B9H   LINE      CODE     ---       #529
      00FF16BBH   LINE      CODE     ---       #532
      00FF16C5H   LINE      CODE     ---       #533
      00FF16C9H   LINE      CODE     ---       #535
      00FF16D5H   LINE      CODE     ---       #536
      00FF16D7H   LINE      CODE     ---       #537
      00FF16D9H   LINE      CODE     ---       #540
      00FF16E6H   LINE      CODE     ---       #541
      00FF16E6H   LINE      CODE     ---       #542
      00FF16E6H   LINE      CODE     ---       #543
      00FF16EAH   LINE      CODE     ---       #544
      ---         BLOCKEND  ---      ---       LVL=0

      ---         MODULE    ---      ---       STC32G_PWM_Isr
      00FF1B0FH   PUBLIC    CODE     ---       PWMA_ISR_Handler
      00FF1B94H   PUBLIC    CODE     ---       PWMB_ISR_Handler
      000000D0H   SFRSYM    DATA     BYTE      PSW
      0000009DH   SFRSYM    DATA     BYTE      IRCBAND
      00000097H   SFRSYM    DATA     BYTE      AUXR2
      000000EFH   SFRSYM    DATA     BYTE      AUXINTIF
      000000FDH   SFRSYM    DATA     BYTE      S4CON
      000000ACH   SFRSYM    DATA     BYTE      S3CON
      0000009AH   SFRSYM    DATA     BYTE      S2CON
      000000B7H   SFRSYM    DATA     BYTE      IPH
      000000CDH   SFRSYM    DATA     BYTE      SPSTAT
      000000DDH   SFRSYM    DATA     BYTE      T4T3M
      000000C1H   SFRSYM    DATA     BYTE      WDT_CONTR
      000000DFH   SFRSYM    DATA     BYTE      IP3
      000000F4H   SFRSYM    DATA     BYTE      USBCON
      000000B5H   SFRSYM    DATA     BYTE      IP2
      000000FFH   SFRSYM    DATA     BYTE      RSTCFG
      000000C7H   SFRSYM    DATA     BYTE      IAP_CONTR
      000000F9H   SFRSYM    DATA     BYTE      LINICR
      0000008EH   SFRSYM    DATA     BYTE      AUXR
      000000AFH   SFRSYM    DATA     BYTE      IE2
      00000088H   SFRSYM    DATA     BYTE      TCON
      00000089H   SFRSYM    DATA     BYTE      TMOD
      00000098H   SFRSYM    DATA     BYTE      SCON
L251 LINKER/LOCATER V4.66.93.0                                                        11/26/2024  21:46:51  PAGE 95


      000000F1H   SFRSYM    DATA     BYTE      CANICR
      00000087H   SFRSYM    DATA     BYTE      PCON
      000000BCH   SFRSYM    DATA     BYTE      ADC_CONTR
      000000E7H   SFRSYM    DATA     BYTE      CMPCR2
      000000E6H   SFRSYM    DATA     BYTE      CMPCR1
      000000DEH   SFRSYM    DATA     BYTE      ADCCFG
      000000B8H   SFRSYM    DATA     BYTE      IP
      0000008FH   SFRSYM    DATA     BYTE      INTCLKO
      000000EEH   SFRSYM    DATA     BYTE      IP3H
      000000B6H   SFRSYM    DATA     BYTE      IP2H
      000000A8H   SFRSYM    DATA     BYTE      IE
      000000BBH   SFRSYM    DATA     BYTE      P_SW3
      000000BAH   SFRSYM    DATA     BYTE      P_SW2
      000000A2H   SFRSYM    DATA     BYTE      P_SW1
      000000CEH   SFRSYM    DATA     BYTE      SPCTL
      000000F8H   SFRSYM    DATA     BYTE      P7
      000000E8H   SFRSYM    DATA     BYTE      P6
      000000C8H   SFRSYM    DATA     BYTE      P5
      000000C0H   SFRSYM    DATA     BYTE      P4
      000000B0H   SFRSYM    DATA     BYTE      P3
      000000A0H   SFRSYM    DATA     BYTE      P2
      00000090H   SFRSYM    DATA     BYTE      P1
      00000080H   SFRSYM    DATA     BYTE      P0

      00FF1B0FH   BLOCK     CODE     ---       LVL=0
      00FF1B0FH   LINE      CODE     ---       #23
      00FF1B15H   LINE      CODE     ---       #26
      00FF1B23H   LINE      CODE     ---       #28
      00FF1B2BH   LINE      CODE     ---       #30
      00FF1B2BH   LINE      CODE     ---       #31
      00FF1B31H   LINE      CODE     ---       #33
      00FF1B39H   LINE      CODE     ---       #35
      00FF1B39H   LINE      CODE     ---       #36
      00FF1B3FH   LINE      CODE     ---       #38
      00FF1B47H   LINE      CODE     ---       #40
      00FF1B47H   LINE      CODE     ---       #41
      00FF1B4DH   LINE      CODE     ---       #43
      00FF1B55H   LINE      CODE     ---       #45
      00FF1B55H   LINE      CODE     ---       #46
      00FF1B5BH   LINE      CODE     ---       #48
      00FF1B63H   LINE      CODE     ---       #50
      00FF1B63H   LINE      CODE     ---       #51
      00FF1B69H   LINE      CODE     ---       #53
      00FF1B71H   LINE      CODE     ---       #55
      00FF1B71H   LINE      CODE     ---       #56
      00FF1B77H   LINE      CODE     ---       #58
      00FF1B7FH   LINE      CODE     ---       #60
      00FF1B7FH   LINE      CODE     ---       #61
      00FF1B85H   LINE      CODE     ---       #63
      00FF1B8DH   LINE      CODE     ---       #65
      ---         BLOCKEND  ---      ---       LVL=0

      00FF1B94H   BLOCK     CODE     ---       LVL=0
      00FF1B94H   LINE      CODE     ---       #75
      00FF1B9AH   LINE      CODE     ---       #78
      00FF1BA8H   LINE      CODE     ---       #80
      00FF1BB0H   LINE      CODE     ---       #82
      00FF1BB0H   LINE      CODE     ---       #83
      00FF1BB6H   LINE      CODE     ---       #85
      00FF1BBEH   LINE      CODE     ---       #87
      00FF1BBEH   LINE      CODE     ---       #88
      00FF1BC4H   LINE      CODE     ---       #90
      00FF1BCCH   LINE      CODE     ---       #92
      00FF1BCCH   LINE      CODE     ---       #93
      00FF1BD2H   LINE      CODE     ---       #95
L251 LINKER/LOCATER V4.66.93.0                                                        11/26/2024  21:46:51  PAGE 96


      00FF1BDAH   LINE      CODE     ---       #97
      00FF1BDAH   LINE      CODE     ---       #98
      00FF1BE0H   LINE      CODE     ---       #100
      00FF1BE8H   LINE      CODE     ---       #102
      00FF1BE8H   LINE      CODE     ---       #103
      00FF1BEEH   LINE      CODE     ---       #105
      00FF1BF6H   LINE      CODE     ---       #107
      00FF1BF6H   LINE      CODE     ---       #108
      00FF1BFCH   LINE      CODE     ---       #110
      00FF1C04H   LINE      CODE     ---       #112
      00FF1C04H   LINE      CODE     ---       #113
      00FF1C0AH   LINE      CODE     ---       #115
      00FF1C12H   LINE      CODE     ---       #117
      ---         BLOCKEND  ---      ---       LVL=0

      ---         MODULE    ---      ---       STC32G_RTC_Isr
      00FF2162H   PUBLIC    CODE     ---       RTC_ISR_Handler
      00000024H.3 PUBLIC    BIT      BIT       B_Alarm
      00000024H.4 PUBLIC    BIT      BIT       B_1S
      000000D0H   SFRSYM    DATA     BYTE      PSW
      0000009DH   SFRSYM    DATA     BYTE      IRCBAND
      00000097H   SFRSYM    DATA     BYTE      AUXR2
      000000EFH   SFRSYM    DATA     BYTE      AUXINTIF
      000000FDH   SFRSYM    DATA     BYTE      S4CON
      000000ACH   SFRSYM    DATA     BYTE      S3CON
      0000009AH   SFRSYM    DATA     BYTE      S2CON
      000000B7H   SFRSYM    DATA     BYTE      IPH
      000000CDH   SFRSYM    DATA     BYTE      SPSTAT
      000000DDH   SFRSYM    DATA     BYTE      T4T3M
      000000C1H   SFRSYM    DATA     BYTE      WDT_CONTR
      000000DFH   SFRSYM    DATA     BYTE      IP3
      000000F4H   SFRSYM    DATA     BYTE      USBCON
      000000B5H   SFRSYM    DATA     BYTE      IP2
      000000FFH   SFRSYM    DATA     BYTE      RSTCFG
      000000C7H   SFRSYM    DATA     BYTE      IAP_CONTR
      000000F9H   SFRSYM    DATA     BYTE      LINICR
      0000008EH   SFRSYM    DATA     BYTE      AUXR
      000000AFH   SFRSYM    DATA     BYTE      IE2
      00000088H   SFRSYM    DATA     BYTE      TCON
      00000089H   SFRSYM    DATA     BYTE      TMOD
      00000098H   SFRSYM    DATA     BYTE      SCON
      000000F1H   SFRSYM    DATA     BYTE      CANICR
      00000080H.1 SFRSYM    DATA     BIT       P01
      00000087H   SFRSYM    DATA     BYTE      PCON
      000000BCH   SFRSYM    DATA     BYTE      ADC_CONTR
      00000080H.0 SFRSYM    DATA     BIT       P00
      000000E7H   SFRSYM    DATA     BYTE      CMPCR2
      000000E6H   SFRSYM    DATA     BYTE      CMPCR1
      000000DEH   SFRSYM    DATA     BYTE      ADCCFG
      000000B8H   SFRSYM    DATA     BYTE      IP
      0000008FH   SFRSYM    DATA     BYTE      INTCLKO
      000000EEH   SFRSYM    DATA     BYTE      IP3H
      000000B6H   SFRSYM    DATA     BYTE      IP2H
      000000A8H   SFRSYM    DATA     BYTE      IE
      000000BBH   SFRSYM    DATA     BYTE      P_SW3
      000000BAH   SFRSYM    DATA     BYTE      P_SW2
      000000A2H   SFRSYM    DATA     BYTE      P_SW1
      000000CEH   SFRSYM    DATA     BYTE      SPCTL
      000000F8H   SFRSYM    DATA     BYTE      P7
      000000E8H   SFRSYM    DATA     BYTE      P6
      000000C8H   SFRSYM    DATA     BYTE      P5
      000000C0H   SFRSYM    DATA     BYTE      P4
      000000B0H   SFRSYM    DATA     BYTE      P3
      000000A0H   SFRSYM    DATA     BYTE      P2
      00000090H   SFRSYM    DATA     BYTE      P1
L251 LINKER/LOCATER V4.66.93.0                                                        11/26/2024  21:46:51  PAGE 97


      00000080H   SFRSYM    DATA     BYTE      P0

      00FF2162H   BLOCK     CODE     ---       LVL=0
      00FF2162H   LINE      CODE     ---       #25
      00FF2168H   LINE      CODE     ---       #28
      00FF2176H   LINE      CODE     ---       #30
      00FF217FH   LINE      CODE     ---       #31
      00FF2187H   LINE      CODE     ---       #32
      00FF2189H   LINE      CODE     ---       #33
      00FF2189H   LINE      CODE     ---       #35
      00FF218FH   LINE      CODE     ---       #37
      00FF2198H   LINE      CODE     ---       #38
      00FF21A0H   LINE      CODE     ---       #39
      00FF21A2H   LINE      CODE     ---       #40
      ---         BLOCKEND  ---      ---       LVL=0

      ---         MODULE    ---      ---       STC32G_LCM_Isr
      00FF2564H   PUBLIC    CODE     ---       LCM_ISR_Handler
      00000025H.0 PUBLIC    BIT      BIT       LcmFlag
      000000D0H   SFRSYM    DATA     BYTE      PSW
      0000009DH   SFRSYM    DATA     BYTE      IRCBAND
      00000097H   SFRSYM    DATA     BYTE      AUXR2
      000000EFH   SFRSYM    DATA     BYTE      AUXINTIF
      000000FDH   SFRSYM    DATA     BYTE      S4CON
      000000ACH   SFRSYM    DATA     BYTE      S3CON
      0000009AH   SFRSYM    DATA     BYTE      S2CON
      000000B7H   SFRSYM    DATA     BYTE      IPH
      000000CDH   SFRSYM    DATA     BYTE      SPSTAT
      000000DDH   SFRSYM    DATA     BYTE      T4T3M
      000000C1H   SFRSYM    DATA     BYTE      WDT_CONTR
      000000DFH   SFRSYM    DATA     BYTE      IP3
      000000F4H   SFRSYM    DATA     BYTE      USBCON
      000000B5H   SFRSYM    DATA     BYTE      IP2
      000000FFH   SFRSYM    DATA     BYTE      RSTCFG
      000000C7H   SFRSYM    DATA     BYTE      IAP_CONTR
      000000F9H   SFRSYM    DATA     BYTE      LINICR
      0000008EH   SFRSYM    DATA     BYTE      AUXR
      000000AFH   SFRSYM    DATA     BYTE      IE2
      00000088H   SFRSYM    DATA     BYTE      TCON
      00000089H   SFRSYM    DATA     BYTE      TMOD
      00000098H   SFRSYM    DATA     BYTE      SCON
      000000F1H   SFRSYM    DATA     BYTE      CANICR
      00000087H   SFRSYM    DATA     BYTE      PCON
      000000BCH   SFRSYM    DATA     BYTE      ADC_CONTR
      000000E7H   SFRSYM    DATA     BYTE      CMPCR2
      000000E6H   SFRSYM    DATA     BYTE      CMPCR1
      000000DEH   SFRSYM    DATA     BYTE      ADCCFG
      000000B8H   SFRSYM    DATA     BYTE      IP
      0000008FH   SFRSYM    DATA     BYTE      INTCLKO
      000000EEH   SFRSYM    DATA     BYTE      IP3H
      000000B6H   SFRSYM    DATA     BYTE      IP2H
      000000A8H   SFRSYM    DATA     BYTE      IE
      000000BBH   SFRSYM    DATA     BYTE      P_SW3
      000000BAH   SFRSYM    DATA     BYTE      P_SW2
      000000A2H   SFRSYM    DATA     BYTE      P_SW1
      000000CEH   SFRSYM    DATA     BYTE      SPCTL
      000000F8H   SFRSYM    DATA     BYTE      P7
      000000E8H   SFRSYM    DATA     BYTE      P6
      000000C8H   SFRSYM    DATA     BYTE      P5
      000000C0H   SFRSYM    DATA     BYTE      P4
      000000B0H   SFRSYM    DATA     BYTE      P3
      000000A0H   SFRSYM    DATA     BYTE      P2
      00000090H   SFRSYM    DATA     BYTE      P1
      00000080H   SFRSYM    DATA     BYTE      P0

L251 LINKER/LOCATER V4.66.93.0                                                        11/26/2024  21:46:51  PAGE 98


      00FF2564H   BLOCK     CODE     ---       LVL=0
      00FF2564H   LINE      CODE     ---       #24
      00FF256AH   LINE      CODE     ---       #27
      00FF2578H   LINE      CODE     ---       #29
      00FF257CH   LINE      CODE     ---       #30
      00FF257EH   LINE      CODE     ---       #31
      ---         BLOCKEND  ---      ---       LVL=0

      ---         MODULE    ---      ---       STC32G_CAN_Isr
      00FF16F3H   PUBLIC    CODE     ---       CAN1_ISR_Handler
      00FF1827H   PUBLIC    CODE     ---       CAN2_ISR_Handler
      00000023H.3 PUBLIC    BIT      BIT       B_Can1Read
      00000023H.4 PUBLIC    BIT      BIT       B_Can2Read
      00000023H.5 PUBLIC    BIT      BIT       B_Can1Send
      00000023H.6 PUBLIC    BIT      BIT       B_Can2Send
      000000D0H   SFRSYM    DATA     BYTE      PSW
      0000009DH   SFRSYM    DATA     BYTE      IRCBAND
      00000097H   SFRSYM    DATA     BYTE      AUXR2
      000000EFH   SFRSYM    DATA     BYTE      AUXINTIF
      000000FDH   SFRSYM    DATA     BYTE      S4CON
      000000ACH   SFRSYM    DATA     BYTE      S3CON
      0000009AH   SFRSYM    DATA     BYTE      S2CON
      000000B7H   SFRSYM    DATA     BYTE      IPH
      000000CDH   SFRSYM    DATA     BYTE      SPSTAT
      000000DDH   SFRSYM    DATA     BYTE      T4T3M
      000000C1H   SFRSYM    DATA     BYTE      WDT_CONTR
      000000DFH   SFRSYM    DATA     BYTE      IP3
      000000F4H   SFRSYM    DATA     BYTE      USBCON
      000000B5H   SFRSYM    DATA     BYTE      IP2
      000000FFH   SFRSYM    DATA     BYTE      RSTCFG
      000000C7H   SFRSYM    DATA     BYTE      IAP_CONTR
      000000F9H   SFRSYM    DATA     BYTE      LINICR
      0000008EH   SFRSYM    DATA     BYTE      AUXR
      000000AFH   SFRSYM    DATA     BYTE      IE2
      00000088H   SFRSYM    DATA     BYTE      TCON
      00000089H   SFRSYM    DATA     BYTE      TMOD
      00000098H   SFRSYM    DATA     BYTE      SCON
      000000F1H   SFRSYM    DATA     BYTE      CANICR
      00000087H   SFRSYM    DATA     BYTE      PCON
      000000BCH   SFRSYM    DATA     BYTE      ADC_CONTR
      000000E7H   SFRSYM    DATA     BYTE      CMPCR2
      000000E6H   SFRSYM    DATA     BYTE      CMPCR1
      000000DEH   SFRSYM    DATA     BYTE      ADCCFG
      000000B8H   SFRSYM    DATA     BYTE      IP
      0000008FH   SFRSYM    DATA     BYTE      INTCLKO
      000000EEH   SFRSYM    DATA     BYTE      IP3H
      000000B6H   SFRSYM    DATA     BYTE      IP2H
      000000A8H   SFRSYM    DATA     BYTE      IE
      000000BBH   SFRSYM    DATA     BYTE      P_SW3
      000000BAH   SFRSYM    DATA     BYTE      P_SW2
      000000A2H   SFRSYM    DATA     BYTE      P_SW1
      000000CEH   SFRSYM    DATA     BYTE      SPCTL
      000000F8H   SFRSYM    DATA     BYTE      P7
      000000E8H   SFRSYM    DATA     BYTE      P6
      000000C8H   SFRSYM    DATA     BYTE      P5
      000000C0H   SFRSYM    DATA     BYTE      P4
      000000B0H   SFRSYM    DATA     BYTE      P3
      000000A0H   SFRSYM    DATA     BYTE      P2
      00000090H   SFRSYM    DATA     BYTE      P1
      00000080H   SFRSYM    DATA     BYTE      P0

      00FF16F3H   BLOCK     CODE     ---       LVL=0
      00FF170BH   BLOCK     CODE     NEAR LAB  LVL=1
      R10         REGSYM    ---      BYTE      isr
      R14         REGSYM    ---      BYTE      store
L251 LINKER/LOCATER V4.66.93.0                                                        11/26/2024  21:46:51  PAGE 99


      R15         REGSYM    ---      BYTE      arTemp
      ---         BLOCKEND  ---      ---       LVL=1
      00FF16F3H   LINE      CODE     ---       #28
      00FF170BH   LINE      CODE     ---       #29
      00FF170BH   LINE      CODE     ---       #34
      00FF1716H   LINE      CODE     ---       #35
      00FF1719H   LINE      CODE     ---       #37
      00FF171CH   LINE      CODE     ---       #38
      00FF1723H   LINE      CODE     ---       #40
      00FF1728H   LINE      CODE     ---       #42
      00FF1735H   LINE      CODE     ---       #43
      00FF173EH   LINE      CODE     ---       #45
      00FF1740H   LINE      CODE     ---       #46
      00FF1740H   LINE      CODE     ---       #47
      00FF1747H   LINE      CODE     ---       #49
      00FF1754H   LINE      CODE     ---       #50
      00FF175DH   LINE      CODE     ---       #52
      00FF175FH   LINE      CODE     ---       #53
      00FF175FH   LINE      CODE     ---       #55
      00FF1766H   LINE      CODE     ---       #57
      00FF1773H   LINE      CODE     ---       #58
      00FF177CH   LINE      CODE     ---       #59
      00FF177CH   LINE      CODE     ---       #61
      00FF1783H   LINE      CODE     ---       #63
      00FF178FH   LINE      CODE     ---       #64
      00FF179FH   LINE      CODE     ---       #66
      00FF17A4H   LINE      CODE     ---       #67
      00FF17A9H   LINE      CODE     ---       #68
      00FF17A9H   LINE      CODE     ---       #70
      00FF17B0H   LINE      CODE     ---       #72
      00FF17BDH   LINE      CODE     ---       #73
      00FF17C6H   LINE      CODE     ---       #74
      00FF17C6H   LINE      CODE     ---       #76
      00FF17CDH   LINE      CODE     ---       #78
      00FF17DAH   LINE      CODE     ---       #79
      00FF17E3H   LINE      CODE     ---       #80
      00FF17E3H   LINE      CODE     ---       #82
      00FF17EAH   LINE      CODE     ---       #84
      00FF17F7H   LINE      CODE     ---       #85
      00FF1800H   LINE      CODE     ---       #86
      00FF1800H   LINE      CODE     ---       #88
      00FF1803H   LINE      CODE     ---       #89
      00FF180EH   LINE      CODE     ---       #90
      ---         BLOCKEND  ---      ---       LVL=0

      00FF1827H   BLOCK     CODE     ---       LVL=0
      00FF183FH   BLOCK     CODE     NEAR LAB  LVL=1
      R10         REGSYM    ---      BYTE      isr
      R14         REGSYM    ---      BYTE      store
      R15         REGSYM    ---      BYTE      arTemp
      ---         BLOCKEND  ---      ---       LVL=1
      00FF1827H   LINE      CODE     ---       #99
      00FF183FH   LINE      CODE     ---       #100
      00FF183FH   LINE      CODE     ---       #105
      00FF184AH   LINE      CODE     ---       #106
      00FF184DH   LINE      CODE     ---       #108
      00FF1850H   LINE      CODE     ---       #109
      00FF1857H   LINE      CODE     ---       #111
      00FF185CH   LINE      CODE     ---       #113
      00FF1869H   LINE      CODE     ---       #114
      00FF1872H   LINE      CODE     ---       #116
      00FF1874H   LINE      CODE     ---       #117
      00FF1874H   LINE      CODE     ---       #118
      00FF187BH   LINE      CODE     ---       #120
      00FF1888H   LINE      CODE     ---       #121
L251 LINKER/LOCATER V4.66.93.0                                                        11/26/2024  21:46:51  PAGE 100


      00FF1891H   LINE      CODE     ---       #123
      00FF1893H   LINE      CODE     ---       #124
      00FF1893H   LINE      CODE     ---       #126
      00FF189AH   LINE      CODE     ---       #128
      00FF18A7H   LINE      CODE     ---       #129
      00FF18B0H   LINE      CODE     ---       #130
      00FF18B0H   LINE      CODE     ---       #132
      00FF18B7H   LINE      CODE     ---       #134
      00FF18C3H   LINE      CODE     ---       #135
      00FF18D3H   LINE      CODE     ---       #137
      00FF18D8H   LINE      CODE     ---       #138
      00FF18DDH   LINE      CODE     ---       #139
      00FF18DDH   LINE      CODE     ---       #141
      00FF18E4H   LINE      CODE     ---       #143
      00FF18F1H   LINE      CODE     ---       #144
      00FF18FAH   LINE      CODE     ---       #145
      00FF18FAH   LINE      CODE     ---       #147
      00FF1901H   LINE      CODE     ---       #149
      00FF190EH   LINE      CODE     ---       #150
      00FF1917H   LINE      CODE     ---       #151
      00FF1917H   LINE      CODE     ---       #153
      00FF191EH   LINE      CODE     ---       #155
      00FF192BH   LINE      CODE     ---       #156
      00FF1934H   LINE      CODE     ---       #157
      00FF1934H   LINE      CODE     ---       #159
      00FF1937H   LINE      CODE     ---       #160
      00FF1942H   LINE      CODE     ---       #161
      ---         BLOCKEND  ---      ---       LVL=0

      ---         MODULE    ---      ---       STC32G_LIN_Isr
      00FF0126H   PUBLIC    CODE     ---       LIN_ISR_Handler
      00000025H.1 PUBLIC    BIT      BIT       LinRxFlag
      000000D0H   SFRSYM    DATA     BYTE      PSW
      000000FAH   SFRSYM    DATA     BYTE      LINAR
      0000009DH   SFRSYM    DATA     BYTE      IRCBAND
      00000097H   SFRSYM    DATA     BYTE      AUXR2
      000000EFH   SFRSYM    DATA     BYTE      AUXINTIF
      000000FDH   SFRSYM    DATA     BYTE      S4CON
      000000ACH   SFRSYM    DATA     BYTE      S3CON
      0000009AH   SFRSYM    DATA     BYTE      S2CON
      000000B7H   SFRSYM    DATA     BYTE      IPH
      000000CDH   SFRSYM    DATA     BYTE      SPSTAT
      000000DDH   SFRSYM    DATA     BYTE      T4T3M
      000000C1H   SFRSYM    DATA     BYTE      WDT_CONTR
      000000DFH   SFRSYM    DATA     BYTE      IP3
      000000F4H   SFRSYM    DATA     BYTE      USBCON
      000000B5H   SFRSYM    DATA     BYTE      IP2
      000000FFH   SFRSYM    DATA     BYTE      RSTCFG
      000000C7H   SFRSYM    DATA     BYTE      IAP_CONTR
      000000F9H   SFRSYM    DATA     BYTE      LINICR
      0000008EH   SFRSYM    DATA     BYTE      AUXR
      000000AFH   SFRSYM    DATA     BYTE      IE2
      00000088H   SFRSYM    DATA     BYTE      TCON
      00000089H   SFRSYM    DATA     BYTE      TMOD
      00000098H   SFRSYM    DATA     BYTE      SCON
      000000F1H   SFRSYM    DATA     BYTE      CANICR
      00000087H   SFRSYM    DATA     BYTE      PCON
      000000BCH   SFRSYM    DATA     BYTE      ADC_CONTR
      000000E7H   SFRSYM    DATA     BYTE      CMPCR2
      000000E6H   SFRSYM    DATA     BYTE      CMPCR1
      000000DEH   SFRSYM    DATA     BYTE      ADCCFG
      000000B8H   SFRSYM    DATA     BYTE      IP
      0000008FH   SFRSYM    DATA     BYTE      INTCLKO
      000000EEH   SFRSYM    DATA     BYTE      IP3H
      000000B6H   SFRSYM    DATA     BYTE      IP2H
L251 LINKER/LOCATER V4.66.93.0                                                        11/26/2024  21:46:51  PAGE 101


      000000A8H   SFRSYM    DATA     BYTE      IE
      000000BBH   SFRSYM    DATA     BYTE      P_SW3
      000000BAH   SFRSYM    DATA     BYTE      P_SW2
      000000A2H   SFRSYM    DATA     BYTE      P_SW1
      000000CEH   SFRSYM    DATA     BYTE      SPCTL
      000000F8H   SFRSYM    DATA     BYTE      P7
      000000E8H   SFRSYM    DATA     BYTE      P6
      000000C8H   SFRSYM    DATA     BYTE      P5
      000000C0H   SFRSYM    DATA     BYTE      P4
      000000B0H   SFRSYM    DATA     BYTE      P3
      000000A0H   SFRSYM    DATA     BYTE      P2
      00000090H   SFRSYM    DATA     BYTE      P1
      00000080H   SFRSYM    DATA     BYTE      P0

      00FF0126H   BLOCK     CODE     ---       LVL=0
      00FF013EH   BLOCK     CODE     NEAR LAB  LVL=1
      R11         REGSYM    ---      BYTE      isr
      R15         REGSYM    ---      BYTE      arTemp
      ---         BLOCKEND  ---      ---       LVL=1
      00FF0126H   LINE      CODE     ---       #24
      00FF013EH   LINE      CODE     ---       #25
      00FF013EH   LINE      CODE     ---       #28
      00FF0141H   LINE      CODE     ---       #30
      00FF0146H   LINE      CODE     ---       #31
      00FF014BH   LINE      CODE     ---       #33
      00FF0152H   LINE      CODE     ---       #34
      00FF0156H   LINE      CODE     ---       #36
      00FF0158H   LINE      CODE     ---       #37
      00FF015AH   LINE      CODE     ---       #41
      00FF015FH   LINE      CODE     ---       #42
      00FF015FH   LINE      CODE     ---       #44
      00FF0162H   LINE      CODE     ---       #45
      ---         BLOCKEND  ---      ---       LVL=0

      ---         MODULE    ---      ---       STC_MDU32
      00FF0006H   PUBLIC    CODE     ---       ?C?ULDIV
      000000EDH   SFRSYM    DATA     BYTE      DMAIR

      00FF0006H   BLOCK     CODE     NEAR LAB  LVL=0
      00FF0006H   LINE      CODE     ---       #26
      00FF0009H   LINE      CODE     ---       #27
      ---         BLOCKEND  ---      ---       LVL=0

      ---         MODULE    ---      ---       ?C_START
      00FF0000H   PUBLIC    CODE     ---       ?C?STARTUP
      00FF0000H   PUBLIC    CODE     ---       ?C_STARTUP

      ---         MODULE    ---      ---       ?C?INITEDATA
      00FF1CB8H   PUBLIC    CODE     ---       ?C?INITEDATA

      ---         MODULE    ---      ---       ?C?INITHDATA
      00FF1CE1H   PUBLIC    CODE     ---       ?C?INITHDATA

      ---         MODULE    ---      ---       ?C?SIDIV
      00FF0F92H   PUBLIC    CODE     ---       ?C?SIDIV

      ---         MODULE    ---      ---       PRINTF
      00000531H   PUBLIC    EDATA    ---       ?PRINTF?BYTE
      00FF0FC4H   PUBLIC    CODE     NEAR LAB  PRINTF

      ---         MODULE    ---      ---       ?C?INITEDATA_END
      00FF2C2AH   PUBLIC    HCONST   WORD      ?C?INITEDATA_END

      ---         MODULE    ---      ---       ?C?INITHDATA_END
      00FF2CDDH   PUBLIC    HCONST   WORD      ?C?INITHDATA_END
L251 LINKER/LOCATER V4.66.93.0                                                        11/26/2024  21:46:51  PAGE 102



      ---         MODULE    ---      ---       ?C?PRNFMT
      00FF101DH   PUBLIC    CODE     ---       ?C?PRNFMT

Program Size: data=13.2 edata+hdata=1703 xdata=6608 const=1751 code=9619
L251 RUN COMPLETE.  0 WARNING(S),  0 ERROR(S)
